(lp0
(cwx._gdi
Colour
p1
(I181
I136
I136
I255
tp2
Rp3
I1
(lp4
(I196
I96
I206
I99
tp5
a(I206
I99
I224
I107
tp6
a(I224
I107
I253
I116
tp7
a(I253
I116
I284
I127
tp8
a(I284
I127
I315
I137
tp9
a(I315
I137
I344
I146
tp10
a(I344
I146
I373
I154
tp11
a(I373
I154
I398
I161
tp12
a(I398
I161
I415
I168
tp13
a(I415
I168
I434
I174
tp14
a(I434
I174
I443
I176
tp15
a(I443
I176
I450
I177
tp16
a(I450
I177
I453
I178
tp17
a(I453
I178
I454
I178
tp18
a(I454
I178
I456
I180
tp19
a(I456
I180
I457
I181
tp20
a(I457
I181
I460
I182
tp21
a(I460
I182
I461
I182
tp22
a(I461
I182
I464
I183
tp23
atp24
a(g3
I1
(lp25
(I470
I96
I461
I104
tp26
a(I461
I104
I451
I113
tp27
a(I451
I113
I438
I125
tp28
a(I438
I125
I423
I138
tp29
a(I423
I138
I408
I153
tp30
a(I408
I153
I393
I168
tp31
a(I393
I168
I378
I185
tp32
a(I378
I185
I361
I201
tp33
a(I361
I201
I342
I218
tp34
a(I342
I218
I329
I231
tp35
a(I329
I231
I317
I246
tp36
a(I317
I246
I305
I261
tp37
a(I305
I261
I296
I275
tp38
a(I296
I275
I287
I284
tp39
a(I287
I284
I280
I291
tp40
a(I280
I291
I275
I297
tp41
a(I275
I297
I273
I301
tp42
atp43
a(g3
I1
(lp44
(I229
I108
I236
I115
tp45
a(I236
I115
I247
I127
tp46
a(I247
I127
I262
I142
tp47
a(I262
I142
I281
I159
tp48
a(I281
I159
I306
I180
tp49
a(I306
I180
I333
I203
tp50
a(I333
I203
I360
I226
tp51
a(I360
I226
I385
I247
tp52
a(I385
I247
I409
I268
tp53
a(I409
I268
I430
I288
tp54
a(I430
I288
I451
I308
tp55
a(I451
I308
I466
I323
tp56
a(I466
I323
I477
I334
tp57
a(I477
I334
I481
I340
tp58
a(I481
I340
I484
I344
tp59
a(I484
I344
I486
I344
tp60
a(I486
I344
I488
I340
tp61
a(I488
I340
I492
I317
tp62
atp63
a(g3
I1
(lp64
(I524
I108
I528
I122
tp65
a(I528
I122
I529
I138
tp66
a(I529
I138
I530
I156
tp67
a(I530
I156
I533
I177
tp68
a(I533
I177
I538
I200
tp69
a(I538
I200
I545
I223
tp70
a(I545
I223
I552
I248
tp71
a(I552
I248
I557
I267
tp72
a(I557
I267
I564
I288
tp73
a(I564
I288
I570
I308
tp74
a(I570
I308
I575
I321
tp75
a(I575
I321
I577
I333
tp76
a(I577
I333
I580
I342
tp77
a(I580
I342
I582
I342
tp78
a(I582
I342
I585
I342
tp79
atp80
a(g3
I1
(lp81
(I684
I122
I674
I133
tp82
a(I674
I133
I659
I149
tp83
a(I659
I149
I646
I162
tp84
a(I646
I162
I627
I181
tp85
a(I627
I181
I610
I200
tp86
a(I610
I200
I594
I221
tp87
a(I594
I221
I578
I241
tp88
a(I578
I241
I565
I260
tp89
a(I565
I260
I552
I278
tp90
a(I552
I278
I535
I303
tp91
a(I535
I303
I524
I324
tp92
a(I524
I324
I513
I345
tp93
a(I513
I345
I502
I366
tp94
a(I502
I366
I493
I385
tp95
a(I493
I385
I485
I400
tp96
a(I485
I400
I477
I411
tp97
a(I477
I411
I475
I412
tp98
a(I475
I412
I476
I413
tp99
a(I476
I413
I478
I407
tp100
a(I478
I407
I481
I397
tp101
a(I481
I397
I485
I380
tp102
atp103
a(g3
I1
(lp104
(I646
I243
I646
I261
tp105
a(I646
I261
I646
I282
tp106
a(I646
I282
I648
I302
tp107
a(I648
I302
I653
I323
tp108
a(I653
I323
I655
I343
tp109
a(I655
I343
I657
I363
tp110
a(I657
I363
I660
I382
tp111
a(I660
I382
I662
I401
tp112
a(I662
I401
I664
I419
tp113
a(I664
I419
I666
I434
tp114
a(I666
I434
I671
I447
tp115
a(I671
I447
I671
I455
tp116
a(I671
I455
I671
I461
tp117
a(I671
I461
I671
I462
tp118
a(I671
I462
I671
I463
tp119
atp120
a(g3
I1
(lp121
(I680
I245
I678
I249
tp122
a(I678
I249
I673
I254
tp123
a(I673
I254
I662
I264
tp124
a(I662
I264
I653
I273
tp125
a(I653
I273
I636
I285
tp126
a(I636
I285
I617
I299
tp127
a(I617
I299
I594
I313
tp128
a(I594
I313
I571
I327
tp129
a(I571
I327
I544
I342
tp130
a(I544
I342
I515
I356
tp131
a(I515
I356
I492
I369
tp132
a(I492
I369
I471
I381
tp133
a(I471
I381
I458
I390
tp134
a(I458
I390
I449
I394
tp135
a(I449
I394
I450
I395
tp136
a(I450
I395
I451
I395
tp137
a(I451
I395
I452
I394
tp138
a(I452
I394
I456
I392
tp139
a(I456
I392
I460
I388
tp140
a(I460
I388
I466
I382
tp141
atp142
a(g3
I1
(lp143
(I687
I271
I688
I272
tp144
a(I688
I272
I688
I273
tp145
a(I688
I273
I688
I274
tp146
a(I688
I274
I688
I276
tp147
a(I688
I276
I686
I279
tp148
a(I686
I279
I681
I280
tp149
a(I681
I280
I669
I282
tp150
a(I669
I282
I648
I284
tp151
a(I648
I284
I625
I284
tp152
a(I625
I284
I594
I284
tp153
a(I594
I284
I563
I284
tp154
a(I563
I284
I528
I284
tp155
a(I528
I284
I491
I284
tp156
a(I491
I284
I448
I284
tp157
a(I448
I284
I406
I284
tp158
a(I406
I284
I371
I281
tp159
a(I371
I281
I337
I278
tp160
a(I337
I278
I308
I271
tp161
a(I308
I271
I283
I264
tp162
a(I283
I264
I262
I259
tp163
a(I262
I259
I249
I252
tp164
a(I249
I252
I237
I250
tp165
a(I237
I250
I226
I248
tp166
a(I226
I248
I219
I245
tp167
a(I219
I245
I217
I245
tp168
a(I217
I245
I215
I241
tp169
a(I215
I241
I215
I235
tp170
a(I215
I235
I215
I228
tp171
a(I215
I228
I215
I218
tp172
a(I215
I218
I215
I209
tp173
a(I215
I209
I216
I193
tp174
a(I216
I193
I224
I175
tp175
a(I224
I175
I234
I154
tp176
a(I234
I154
I246
I135
tp177
a(I246
I135
I257
I118
tp178
a(I257
I118
I272
I102
tp179
a(I272
I102
I287
I87
tp180
a(I287
I87
I304
I76
tp181
a(I304
I76
I329
I66
tp182
a(I329
I66
I353
I57
tp183
a(I353
I57
I374
I50
tp184
a(I374
I50
I393
I50
tp185
a(I393
I50
I420
I50
tp186
a(I420
I50
I451
I50
tp187
a(I451
I50
I484
I61
tp188
a(I484
I61
I517
I78
tp189
a(I517
I78
I548
I94
tp190
a(I548
I94
I577
I111
tp191
a(I577
I111
I602
I128
tp192
a(I602
I128
I623
I149
tp193
a(I623
I149
I636
I168
tp194
a(I636
I168
I638
I187
tp195
a(I638
I187
I641
I208
tp196
a(I641
I208
I641
I227
tp197
a(I641
I227
I630
I250
tp198
a(I630
I250
I611
I271
tp199
a(I611
I271
I582
I288
tp200
a(I582
I288
I541
I301
tp201
a(I541
I301
I496
I313
tp202
a(I496
I313
I443
I320
tp203
a(I443
I320
I394
I322
tp204
a(I394
I322
I351
I322
tp205
a(I351
I322
I312
I317
tp206
a(I312
I317
I285
I308
tp207
a(I285
I308
I266
I297
tp208
a(I266
I297
I257
I287
tp209
a(I257
I287
I250
I270
tp210
a(I250
I270
I250
I253
tp211
a(I250
I253
I250
I236
tp212
a(I250
I236
I255
I220
tp213
a(I255
I220
I272
I203
tp214
a(I272
I203
I299
I190
tp215
a(I299
I190
I332
I181
tp216
a(I332
I181
I371
I176
tp217
a(I371
I176
I420
I171
tp218
a(I420
I171
I468
I171
tp219
a(I468
I171
I509
I171
tp220
a(I509
I171
I546
I171
tp221
a(I546
I171
I577
I176
tp222
a(I577
I176
I592
I183
tp223
a(I592
I183
I603
I190
tp224
a(I603
I190
I604
I194
tp225
a(I604
I194
I604
I205
tp226
a(I604
I205
I604
I216
tp227
a(I604
I216
I604
I230
tp228
a(I604
I230
I604
I244
tp229
a(I604
I244
I595
I262
tp230
a(I595
I262
I584
I281
tp231
a(I584
I281
I563
I302
tp232
a(I563
I302
I538
I323
tp233
a(I538
I323
I509
I344
tp234
a(I509
I344
I470
I363
tp235
a(I470
I363
I431
I376
tp236
a(I431
I376
I392
I387
tp237
a(I392
I387
I354
I387
tp238
a(I354
I387
I319
I387
tp239
a(I319
I387
I294
I378
tp240
a(I294
I378
I279
I367
tp241
a(I279
I367
I270
I354
tp242
a(I270
I354
I268
I335
tp243
a(I268
I335
I268
I310
tp244
a(I268
I310
I268
I281
tp245
a(I268
I281
I281
I253
tp246
a(I281
I253
I296
I228
tp247
a(I296
I228
I321
I211
tp248
a(I321
I211
I352
I198
tp249
a(I352
I198
I391
I191
tp250
a(I391
I191
I434
I189
tp251
a(I434
I189
I476
I189
tp252
a(I476
I189
I511
I189
tp253
a(I511
I189
I544
I198
tp254
a(I544
I198
I565
I207
tp255
a(I565
I207
I574
I215
tp256
a(I574
I215
I580
I225
tp257
a(I580
I225
I580
I237
tp258
a(I580
I237
I580
I253
tp259
a(I580
I253
I575
I270
tp260
a(I575
I270
I556
I289
tp261
a(I556
I289
I531
I304
tp262
a(I531
I304
I498
I315
tp263
a(I498
I315
I455
I322
tp264
a(I455
I322
I413
I324
tp265
a(I413
I324
I372
I324
tp266
a(I372
I324
I329
I321
tp267
a(I329
I321
I298
I312
tp268
a(I298
I312
I273
I301
tp269
a(I273
I301
I258
I292
tp270
a(I258
I292
I256
I281
tp271
a(I256
I281
I256
I271
tp272
a(I256
I271
I256
I256
tp273
a(I256
I256
I272
I242
tp274
a(I272
I242
I300
I231
tp275
a(I300
I231
I341
I224
tp276
a(I341
I224
I396
I222
tp277
a(I396
I222
I447
I222
tp278
a(I447
I222
I498
I224
tp279
a(I498
I224
I547
I233
tp280
a(I547
I233
I580
I244
tp281
a(I580
I244
I601
I254
tp282
a(I601
I254
I614
I264
tp283
a(I614
I264
I616
I275
tp284
a(I616
I275
I616
I290
tp285
a(I616
I290
I609
I305
tp286
a(I609
I305
I588
I318
tp287
a(I588
I318
I568
I327
tp288
a(I568
I327
I535
I336
tp289
a(I535
I336
I500
I341
tp290
a(I500
I341
I461
I345
tp291
a(I461
I345
I423
I345
tp292
a(I423
I345
I382
I345
tp293
a(I382
I345
I353
I345
tp294
a(I353
I345
I330
I338
tp295
a(I330
I338
I315
I331
tp296
a(I315
I331
I310
I325
tp297
a(I310
I325
I310
I312
tp298
a(I310
I312
I310
I293
tp299
a(I310
I293
I315
I272
tp300
a(I315
I272
I330
I252
tp301
a(I330
I252
I351
I233
tp302
a(I351
I233
I380
I215
tp303
a(I380
I215
I419
I202
tp304
a(I419
I202
I462
I190
tp305
a(I462
I190
I515
I179
tp306
a(I515
I179
I567
I172
tp307
a(I567
I172
I616
I167
tp308
a(I616
I167
I661
I165
tp309
a(I661
I165
I692
I165
tp310
a(I692
I165
I717
I165
tp311
a(I717
I165
I730
I165
tp312
a(I730
I165
I731
I165
tp313
atp314
a.