(lp0
(S'Dark Grey'
p1
I1
(lp2
(I296
I95
I321
I95
tp3
a(I321
I95
I344
I95
tp4
a(I344
I95
I369
I95
tp5
a(I369
I95
I393
I95
tp6
a(I393
I95
I418
I95
tp7
a(I418
I95
I445
I95
tp8
a(I445
I95
I472
I95
tp9
a(I472
I95
I499
I95
tp10
a(I499
I95
I556
I95
tp11
a(I556
I95
I585
I95
tp12
a(I585
I95
I643
I95
tp13
a(I643
I95
I699
I95
tp14
a(I699
I95
I726
I95
tp15
a(I726
I95
I775
I95
tp16
a(I775
I95
I816
I95
tp17
a(I816
I95
I833
I95
tp18
a(I833
I95
I866
I95
tp19
a(I866
I95
I891
I95
tp20
a(I891
I95
I897
I95
tp21
a(I897
I95
I898
I95
tp22
atp23
a(S'Light Grey'
p24
I1
(lp25
(I294
I110
I303
I110
tp26
a(I303
I110
I320
I110
tp27
a(I320
I110
I343
I110
tp28
a(I343
I110
I370
I110
tp29
a(I370
I110
I397
I110
tp30
a(I397
I110
I422
I110
tp31
a(I422
I110
I443
I110
tp32
a(I443
I110
I463
I110
tp33
a(I463
I110
I483
I110
tp34
a(I483
I110
I502
I110
tp35
a(I502
I110
I519
I110
tp36
a(I519
I110
I540
I110
tp37
a(I540
I110
I560
I110
tp38
a(I560
I110
I581
I110
tp39
a(I581
I110
I602
I110
tp40
a(I602
I110
I625
I110
tp41
a(I625
I110
I648
I110
tp42
a(I648
I110
I696
I110
tp43
a(I696
I110
I718
I110
tp44
a(I718
I110
I739
I110
tp45
a(I739
I110
I760
I110
tp46
a(I760
I110
I779
I110
tp47
a(I779
I110
I797
I110
tp48
a(I797
I110
I814
I110
tp49
a(I814
I110
I829
I110
tp50
a(I829
I110
I840
I110
tp51
a(I840
I110
I841
I110
tp52
a(I841
I110
I842
I110
tp53
atp54
a(S'Navy'
p55
I1
(lp56
(I317
I130
I326
I130
tp57
a(I326
I130
I342
I130
tp58
a(I342
I130
I361
I130
tp59
a(I361
I130
I381
I130
tp60
a(I381
I130
I406
I130
tp61
a(I406
I130
I430
I130
tp62
a(I430
I130
I455
I130
tp63
a(I455
I130
I479
I130
tp64
a(I479
I130
I506
I130
tp65
a(I506
I130
I558
I130
tp66
a(I558
I130
I583
I130
tp67
a(I583
I130
I633
I130
tp68
a(I633
I130
I685
I130
tp69
a(I685
I130
I708
I130
tp70
a(I708
I130
I744
I130
tp71
a(I744
I130
I759
I130
tp72
a(I759
I130
I761
I128
tp73
atp74
a(S'Orange'
p75
I1
(lp76
(I328
I150
I332
I150
tp77
a(I332
I150
I336
I150
tp78
a(I336
I150
I340
I150
tp79
a(I340
I150
I345
I150
tp80
a(I345
I150
I351
I150
tp81
a(I351
I150
I363
I150
tp82
a(I363
I150
I383
I150
tp83
a(I383
I150
I405
I150
tp84
a(I405
I150
I430
I150
tp85
a(I430
I150
I457
I150
tp86
a(I457
I150
I483
I150
tp87
a(I483
I150
I509
I150
tp88
a(I509
I150
I535
I150
tp89
a(I535
I150
I561
I147
tp90
a(I561
I147
I584
I147
tp91
a(I584
I147
I606
I145
tp92
a(I606
I145
I628
I143
tp93
a(I628
I143
I650
I141
tp94
a(I650
I141
I667
I141
tp95
a(I667
I141
I683
I141
tp96
a(I683
I141
I699
I141
tp97
a(I699
I141
I710
I141
tp98
a(I710
I141
I718
I138
tp99
a(I718
I138
I724
I138
tp100
a(I724
I138
I728
I138
tp101
a(I728
I138
I733
I138
tp102
a(I733
I138
I734
I138
tp103
a(I734
I138
I735
I138
tp104
atp105
a(S'Cyan'
p106
I1
(lp107
(I342
I171
I360
I171
tp108
a(I360
I171
I384
I171
tp109
a(I384
I171
I415
I171
tp110
a(I415
I171
I446
I171
tp111
a(I446
I171
I481
I171
tp112
a(I481
I171
I515
I171
tp113
a(I515
I171
I548
I166
tp114
a(I548
I166
I581
I166
tp115
a(I581
I166
I610
I163
tp116
a(I610
I163
I641
I160
tp117
a(I641
I160
I671
I157
tp118
a(I671
I157
I700
I152
tp119
a(I700
I152
I725
I150
tp120
a(I725
I150
I748
I148
tp121
a(I748
I148
I767
I146
tp122
a(I767
I146
I782
I143
tp123
a(I782
I143
I793
I143
tp124
a(I793
I143
I799
I141
tp125
atp126
a(S'Goldenrod'
p127
I1
(lp128
(I337
I203
I343
I203
tp129
a(I343
I203
I358
I203
tp130
a(I358
I203
I381
I203
tp131
a(I381
I203
I408
I201
tp132
a(I408
I201
I441
I201
tp133
a(I441
I201
I474
I201
tp134
a(I474
I201
I509
I198
tp135
a(I509
I198
I543
I196
tp136
a(I543
I196
I574
I193
tp137
a(I574
I193
I603
I190
tp138
a(I603
I190
I626
I187
tp139
a(I626
I187
I647
I187
tp140
a(I647
I187
I660
I187
tp141
a(I660
I187
I673
I187
tp142
a(I673
I187
I685
I187
tp143
a(I685
I187
I695
I187
tp144
a(I695
I187
I704
I187
tp145
a(I704
I187
I713
I187
tp146
a(I713
I187
I722
I187
tp147
a(I722
I187
I731
I187
tp148
a(I731
I187
I739
I187
tp149
a(I739
I187
I740
I187
tp150
a(I740
I187
I741
I187
tp151
atp152
a(S'Light Blue'
p153
I1
(lp154
(I367
I222
I406
I222
tp155
a(I406
I222
I434
I222
tp156
a(I434
I222
I463
I222
tp157
a(I463
I222
I491
I222
tp158
a(I491
I222
I519
I222
tp159
a(I519
I222
I546
I220
tp160
a(I546
I220
I572
I218
tp161
a(I572
I218
I597
I215
tp162
a(I597
I215
I621
I215
tp163
a(I621
I215
I646
I215
tp164
a(I646
I215
I671
I215
tp165
a(I671
I215
I694
I215
tp166
a(I694
I215
I717
I215
tp167
a(I717
I215
I740
I215
tp168
a(I740
I215
I755
I215
tp169
a(I755
I215
I776
I215
tp170
a(I776
I215
I799
I215
tp171
a(I799
I215
I816
I215
tp172
a(I816
I215
I827
I215
tp173
a(I827
I215
I840
I215
tp174
a(I840
I215
I851
I215
tp175
a(I851
I215
I857
I215
tp176
a(I857
I215
I861
I215
tp177
atp178
a(S'Forest Green'
p179
I1
(lp180
(I339
I253
I345
I253
tp181
a(I345
I253
I354
I253
tp182
a(I354
I253
I366
I253
tp183
a(I366
I253
I380
I250
tp184
a(I380
I250
I397
I248
tp185
a(I397
I248
I416
I246
tp186
a(I416
I246
I442
I241
tp187
a(I442
I241
I471
I237
tp188
a(I471
I237
I499
I235
tp189
a(I499
I235
I528
I232
tp190
a(I528
I232
I556
I229
tp191
a(I556
I229
I585
I227
tp192
a(I585
I227
I613
I222
tp193
a(I613
I222
I641
I220
tp194
a(I641
I220
I669
I218
tp195
a(I669
I218
I696
I218
tp196
a(I696
I218
I719
I215
tp197
a(I719
I215
I732
I215
tp198
a(I732
I215
I749
I215
tp199
a(I749
I215
I764
I215
tp200
a(I764
I215
I779
I215
tp201
a(I779
I215
I793
I215
tp202
a(I793
I215
I808
I215
tp203
a(I808
I215
I828
I215
tp204
a(I828
I215
I836
I215
tp205
a(I836
I215
I837
I213
tp206
atp207
a(S'Aquamarine'
p208
I1
(lp209
(I335
I274
I337
I275
tp210
a(I337
I275
I341
I275
tp211
a(I341
I275
I348
I276
tp212
a(I348
I276
I361
I276
tp213
a(I361
I276
I378
I276
tp214
a(I378
I276
I402
I276
tp215
a(I402
I276
I429
I276
tp216
a(I429
I276
I458
I276
tp217
a(I458
I276
I491
I276
tp218
a(I491
I276
I524
I276
tp219
a(I524
I276
I559
I276
tp220
a(I559
I276
I593
I276
tp221
a(I593
I276
I627
I276
tp222
a(I627
I276
I660
I276
tp223
a(I660
I276
I691
I276
tp224
a(I691
I276
I721
I276
tp225
a(I721
I276
I748
I276
tp226
a(I748
I276
I771
I276
tp227
a(I771
I276
I792
I276
tp228
a(I792
I276
I807
I276
tp229
a(I807
I276
I818
I276
tp230
a(I818
I276
I824
I276
tp231
a(I824
I276
I825
I276
tp232
atp233
a(S'Brown'
p234
I1
(lp235
(I343
I299
I346
I299
tp236
a(I346
I299
I350
I299
tp237
a(I350
I299
I355
I297
tp238
a(I355
I297
I359
I297
tp239
a(I359
I297
I366
I297
tp240
a(I366
I297
I377
I297
tp241
a(I377
I297
I395
I297
tp242
a(I395
I297
I415
I297
tp243
a(I415
I297
I439
I297
tp244
a(I439
I297
I463
I297
tp245
a(I463
I297
I488
I297
tp246
a(I488
I297
I512
I297
tp247
a(I512
I297
I535
I297
tp248
a(I535
I297
I557
I297
tp249
a(I557
I297
I578
I297
tp250
a(I578
I297
I599
I297
tp251
a(I599
I297
I620
I297
tp252
a(I620
I297
I643
I295
tp253
a(I643
I295
I666
I295
tp254
a(I666
I295
I688
I295
tp255
a(I688
I295
I709
I295
tp256
a(I709
I295
I730
I295
tp257
a(I730
I295
I749
I295
tp258
a(I749
I295
I768
I295
tp259
a(I768
I295
I786
I295
tp260
a(I786
I295
I799
I295
tp261
a(I799
I295
I810
I295
tp262
a(I810
I295
I818
I295
tp263
a(I818
I295
I822
I295
tp264
atp265
a(S'Purple'
p266
I1
(lp267
(I346
I319
I352
I319
tp268
a(I352
I319
I363
I319
tp269
a(I363
I319
I379
I319
tp270
a(I379
I319
I401
I319
tp271
a(I401
I319
I423
I319
tp272
a(I423
I319
I450
I319
tp273
a(I450
I319
I479
I319
tp274
a(I479
I319
I508
I319
tp275
a(I508
I319
I536
I319
tp276
a(I536
I319
I563
I319
tp277
a(I563
I319
I589
I319
tp278
a(I589
I319
I612
I319
tp279
a(I612
I319
I633
I319
tp280
a(I633
I319
I654
I319
tp281
a(I654
I319
I674
I319
tp282
a(I674
I319
I694
I319
tp283
a(I694
I319
I713
I319
tp284
a(I713
I319
I732
I319
tp285
a(I732
I319
I750
I319
tp286
a(I750
I319
I767
I319
tp287
a(I767
I319
I783
I319
tp288
a(I783
I319
I796
I319
tp289
a(I796
I319
I807
I319
tp290
a(I807
I319
I808
I319
tp291
a(I808
I319
I810
I319
tp292
atp293
a(S'Blue'
p294
I1
(lp295
(I342
I339
I353
I339
tp296
a(I353
I339
I364
I339
tp297
a(I364
I339
I380
I339
tp298
a(I380
I339
I396
I339
tp299
a(I396
I339
I416
I339
tp300
a(I416
I339
I436
I339
tp301
a(I436
I339
I460
I339
tp302
a(I460
I339
I487
I339
tp303
a(I487
I339
I520
I337
tp304
a(I520
I337
I549
I335
tp305
a(I549
I335
I580
I330
tp306
a(I580
I330
I609
I326
tp307
a(I609
I326
I637
I324
tp308
a(I637
I324
I662
I319
tp309
a(I662
I319
I683
I317
tp310
a(I683
I317
I700
I317
tp311
a(I700
I317
I715
I317
tp312
a(I715
I317
I730
I317
tp313
a(I730
I317
I745
I317
tp314
a(I745
I317
I762
I317
tp315
a(I762
I317
I779
I317
tp316
a(I779
I317
I790
I317
tp317
a(I790
I317
I803
I317
tp318
a(I803
I317
I820
I315
tp319
a(I820
I315
I833
I315
tp320
a(I833
I315
I848
I315
tp321
a(I848
I315
I862
I315
tp322
a(I862
I315
I885
I310
tp323
a(I885
I310
I894
I310
tp324
a(I894
I310
I904
I310
tp325
a(I904
I310
I905
I310
tp326
atp327
a(S'Green'
p328
I1
(lp329
(I326
I364
I331
I364
tp330
a(I331
I364
I343
I364
tp331
a(I343
I364
I362
I364
tp332
a(I362
I364
I388
I364
tp333
a(I388
I364
I413
I364
tp334
a(I413
I364
I440
I364
tp335
a(I440
I364
I467
I364
tp336
a(I467
I364
I493
I364
tp337
a(I493
I364
I519
I364
tp338
a(I519
I364
I541
I364
tp339
a(I541
I364
I563
I364
tp340
a(I563
I364
I585
I364
tp341
a(I585
I364
I607
I364
tp342
a(I607
I364
I628
I364
tp343
a(I628
I364
I649
I364
tp344
a(I649
I364
I670
I364
tp345
a(I670
I364
I690
I364
tp346
a(I690
I364
I709
I364
tp347
a(I709
I364
I727
I364
tp348
a(I727
I364
I745
I364
tp349
a(I745
I364
I763
I364
tp350
a(I763
I364
I804
I364
tp351
a(I804
I364
I824
I364
tp352
a(I824
I364
I864
I364
tp353
a(I864
I364
I898
I364
tp354
a(I898
I364
I913
I364
tp355
a(I913
I364
I934
I364
tp356
a(I934
I364
I938
I364
tp357
a(I938
I364
I939
I364
tp358
atp359
a(S'Red'
p360
I1
(lp361
(I361
I390
I376
I390
tp362
a(I376
I390
I393
I390
tp363
a(I393
I390
I413
I390
tp364
a(I413
I390
I432
I390
tp365
a(I432
I390
I454
I390
tp366
a(I454
I390
I475
I390
tp367
a(I475
I390
I498
I390
tp368
a(I498
I390
I520
I390
tp369
a(I520
I390
I544
I390
tp370
a(I544
I390
I568
I390
tp371
a(I568
I390
I593
I390
tp372
a(I593
I390
I616
I390
tp373
a(I616
I390
I641
I390
tp374
a(I641
I390
I665
I390
tp375
a(I665
I390
I690
I390
tp376
a(I690
I390
I713
I390
tp377
a(I713
I390
I735
I390
tp378
a(I735
I390
I756
I390
tp379
a(I756
I390
I776
I390
tp380
a(I776
I390
I796
I390
tp381
a(I796
I390
I816
I390
tp382
a(I816
I390
I836
I390
tp383
a(I836
I390
I855
I390
tp384
a(I855
I390
I873
I390
tp385
a(I873
I390
I891
I390
tp386
a(I891
I390
I908
I390
tp387
a(I908
I390
I923
I390
tp388
a(I923
I390
I936
I390
tp389
a(I936
I390
I937
I390
tp390
a(I937
I390
I938
I390
tp391
a(I938
I390
I940
I390
tp392
atp393
a(S'Yellow'
p394
I1
(lp395
(I330
I428
I335
I428
tp396
a(I335
I428
I342
I428
tp397
a(I342
I428
I349
I428
tp398
a(I349
I428
I359
I428
tp399
a(I359
I428
I371
I428
tp400
a(I371
I428
I385
I428
tp401
a(I385
I428
I402
I428
tp402
a(I402
I428
I422
I428
tp403
a(I422
I428
I442
I428
tp404
a(I442
I428
I462
I428
tp405
a(I462
I428
I481
I428
tp406
a(I481
I428
I500
I428
tp407
a(I500
I428
I518
I428
tp408
a(I518
I428
I535
I428
tp409
a(I535
I428
I551
I428
tp410
a(I551
I428
I567
I428
tp411
a(I567
I428
I582
I428
tp412
a(I582
I428
I599
I428
tp413
a(I599
I428
I618
I428
tp414
a(I618
I428
I639
I428
tp415
a(I639
I428
I662
I428
tp416
a(I662
I428
I684
I428
tp417
a(I684
I428
I699
I428
tp418
a(I699
I428
I718
I428
tp419
a(I718
I428
I731
I428
tp420
a(I731
I428
I746
I428
tp421
a(I746
I428
I759
I428
tp422
a(I759
I428
I774
I428
tp423
a(I774
I428
I785
I428
tp424
a(I785
I428
I794
I428
tp425
a(I794
I428
I802
I428
tp426
a(I802
I428
I808
I428
tp427
a(I808
I428
I811
I428
tp428
a(I811
I428
I812
I428
tp429
a(I812
I428
I813
I428
tp430
atp431
a(S'Black'
p432
I1
(lp433
(I316
I463
I320
I463
tp434
a(I320
I463
I323
I463
tp435
a(I323
I463
I330
I463
tp436
a(I330
I463
I339
I463
tp437
a(I339
I463
I353
I463
tp438
a(I353
I463
I370
I463
tp439
a(I370
I463
I390
I463
tp440
a(I390
I463
I410
I463
tp441
a(I410
I463
I458
I463
tp442
a(I458
I463
I483
I463
tp443
a(I483
I463
I533
I463
tp444
a(I533
I463
I578
I463
tp445
a(I578
I463
I600
I463
tp446
a(I600
I463
I642
I463
tp447
a(I642
I463
I679
I463
tp448
a(I679
I463
I697
I463
tp449
a(I697
I463
I734
I463
tp450
a(I734
I463
I774
I463
tp451
a(I774
I463
I794
I463
tp452
a(I794
I463
I830
I463
tp453
a(I830
I463
I856
I463
tp454
a(I856
I463
I866
I463
tp455
a(I866
I463
I883
I463
tp456
a(I883
I463
I901
I463
tp457
a(I901
I463
I909
I463
tp458
a(I909
I463
I916
I461
tp459
atp460
a(S'Black'
p461
I1
(lp462
tp463
a(g461
I1
(lp464
(I28
I48
I29
I48
tp465
a(I29
I48
I32
I48
tp466
a(I32
I48
I36
I46
tp467
a(I36
I46
I42
I46
tp468
a(I42
I46
I49
I46
tp469
a(I49
I46
I57
I46
tp470
a(I57
I46
I64
I46
tp471
a(I64
I46
I71
I46
tp472
a(I71
I46
I74
I46
tp473
a(I74
I46
I75
I46
tp474
atp475
a(g461
I2
(lp476
(I25
I62
I26
I62
tp477
a(I26
I62
I28
I60
tp478
a(I28
I60
I30
I60
tp479
a(I30
I60
I34
I60
tp480
a(I34
I60
I36
I60
tp481
a(I36
I60
I40
I60
tp482
a(I40
I60
I44
I60
tp483
a(I44
I60
I48
I60
tp484
a(I48
I60
I50
I60
tp485
a(I50
I60
I54
I60
tp486
a(I54
I60
I56
I60
tp487
a(I56
I60
I59
I60
tp488
a(I59
I60
I61
I60
tp489
a(I61
I60
I63
I60
tp490
a(I63
I60
I64
I60
tp491
a(I64
I60
I65
I60
tp492
a(I65
I60
I66
I60
tp493
a(I66
I60
I68
I60
tp494
a(I68
I60
I69
I60
tp495
a(I69
I60
I70
I60
tp496
a(I70
I60
I71
I60
tp497
a(I71
I60
I74
I60
tp498
a(I74
I60
I75
I60
tp499
a(I75
I60
I76
I60
tp500
a(I76
I60
I78
I60
tp501
atp502
a(g461
I3
(lp503
(I23
I76
I24
I75
tp504
a(I24
I75
I28
I75
tp505
a(I28
I75
I35
I75
tp506
a(I35
I75
I44
I75
tp507
a(I44
I75
I52
I75
tp508
a(I52
I75
I60
I75
tp509
a(I60
I75
I67
I75
tp510
a(I67
I75
I72
I75
tp511
a(I72
I75
I76
I75
tp512
a(I76
I75
I79
I75
tp513
a(I79
I75
I81
I75
tp514
a(I81
I75
I83
I75
tp515
a(I83
I75
I84
I75
tp516
a(I84
I75
I87
I75
tp517
a(I87
I75
I89
I75
tp518
a(I89
I75
I92
I75
tp519
a(I92
I75
I94
I75
tp520
a(I94
I75
I96
I75
tp521
a(I96
I75
I97
I75
tp522
a(I97
I75
I99
I75
tp523
a(I99
I75
I101
I75
tp524
a(I101
I75
I102
I75
tp525
a(I102
I75
I104
I75
tp526
a(I104
I75
I106
I75
tp527
atp528
a(g461
I4
(lp529
(I17
I90
I19
I89
tp530
a(I19
I89
I23
I89
tp531
a(I23
I89
I29
I89
tp532
a(I29
I89
I37
I89
tp533
a(I37
I89
I44
I89
tp534
a(I44
I89
I51
I89
tp535
a(I51
I89
I56
I89
tp536
a(I56
I89
I60
I89
tp537
a(I60
I89
I64
I89
tp538
a(I64
I89
I66
I89
tp539
a(I66
I89
I68
I89
tp540
a(I68
I89
I70
I89
tp541
a(I70
I89
I73
I89
tp542
a(I73
I89
I75
I89
tp543
a(I75
I89
I76
I89
tp544
a(I76
I89
I79
I89
tp545
a(I79
I89
I80
I89
tp546
a(I80
I89
I81
I89
tp547
a(I81
I89
I83
I89
tp548
a(I83
I89
I85
I89
tp549
a(I85
I89
I86
I89
tp550
a(I86
I89
I88
I89
tp551
a(I88
I89
I89
I89
tp552
a(I89
I89
I90
I89
tp553
a(I90
I89
I91
I89
tp554
a(I91
I89
I93
I89
tp555
a(I93
I89
I94
I89
tp556
a(I94
I89
I95
I89
tp557
a(I95
I89
I98
I89
tp558
a(I98
I89
I99
I89
tp559
a(I99
I89
I101
I89
tp560
a(I101
I89
I103
I89
tp561
a(I103
I89
I105
I89
tp562
a(I105
I89
I106
I89
tp563
a(I106
I89
I108
I89
tp564
a(I108
I89
I109
I89
tp565
a(I109
I89
I110
I89
tp566
a(I110
I89
I111
I90
tp567
a(I111
I90
I112
I90
tp568
a(I112
I90
I113
I90
tp569
atp570
a(g461
I5
(lp571
(I16
I106
I17
I105
tp572
a(I17
I105
I21
I105
tp573
a(I21
I105
I25
I105
tp574
a(I25
I105
I31
I105
tp575
a(I31
I105
I37
I105
tp576
a(I37
I105
I40
I105
tp577
a(I40
I105
I43
I105
tp578
a(I43
I105
I45
I105
tp579
a(I45
I105
I48
I105
tp580
a(I48
I105
I49
I105
tp581
a(I49
I105
I50
I105
tp582
a(I50
I105
I52
I105
tp583
a(I52
I105
I53
I104
tp584
a(I53
I104
I54
I104
tp585
a(I54
I104
I55
I104
tp586
a(I55
I104
I57
I104
tp587
a(I57
I104
I58
I104
tp588
a(I58
I104
I59
I104
tp589
a(I59
I104
I61
I104
tp590
a(I61
I104
I63
I104
tp591
a(I63
I104
I65
I104
tp592
a(I65
I104
I67
I104
tp593
a(I67
I104
I68
I104
tp594
a(I68
I104
I69
I104
tp595
a(I69
I104
I72
I104
tp596
a(I72
I104
I73
I104
tp597
a(I73
I104
I75
I104
tp598
a(I75
I104
I79
I104
tp599
a(I79
I104
I83
I104
tp600
a(I83
I104
I85
I104
tp601
a(I85
I104
I88
I104
tp602
a(I88
I104
I92
I104
tp603
a(I92
I104
I93
I104
tp604
a(I93
I104
I95
I104
tp605
a(I95
I104
I99
I104
tp606
a(I99
I104
I100
I104
tp607
a(I100
I104
I102
I104
tp608
a(I102
I104
I103
I104
tp609
a(I103
I104
I104
I104
tp610
a(I104
I104
I105
I104
tp611
a(I105
I104
I106
I104
tp612
a(I106
I104
I107
I104
tp613
a(I107
I104
I108
I104
tp614
a(I108
I104
I109
I104
tp615
a(I109
I104
I110
I104
tp616
a(I110
I104
I112
I104
tp617
a(I112
I104
I113
I104
tp618
atp619
a(g461
I6
(lp620
(I9
I119
I10
I119
tp621
a(I10
I119
I13
I119
tp622
a(I13
I119
I16
I119
tp623
a(I16
I119
I20
I119
tp624
a(I20
I119
I24
I119
tp625
a(I24
I119
I28
I119
tp626
a(I28
I119
I31
I119
tp627
a(I31
I119
I35
I119
tp628
a(I35
I119
I38
I119
tp629
a(I38
I119
I40
I119
tp630
a(I40
I119
I43
I119
tp631
a(I43
I119
I44
I119
tp632
a(I44
I119
I46
I119
tp633
a(I46
I119
I48
I119
tp634
a(I48
I119
I49
I119
tp635
a(I49
I119
I50
I119
tp636
a(I50
I119
I51
I119
tp637
a(I51
I119
I53
I119
tp638
a(I53
I119
I54
I119
tp639
a(I54
I119
I55
I119
tp640
a(I55
I119
I56
I119
tp641
a(I56
I119
I58
I119
tp642
a(I58
I119
I59
I119
tp643
a(I59
I119
I60
I119
tp644
a(I60
I119
I61
I119
tp645
a(I61
I119
I63
I119
tp646
a(I63
I119
I64
I119
tp647
a(I64
I119
I66
I119
tp648
a(I66
I119
I69
I119
tp649
a(I69
I119
I70
I119
tp650
a(I70
I119
I73
I119
tp651
a(I73
I119
I74
I119
tp652
a(I74
I119
I75
I119
tp653
a(I75
I119
I78
I119
tp654
a(I78
I119
I79
I119
tp655
a(I79
I119
I80
I119
tp656
a(I80
I119
I83
I119
tp657
a(I83
I119
I85
I119
tp658
a(I85
I119
I88
I119
tp659
a(I88
I119
I90
I119
tp660
a(I90
I119
I91
I119
tp661
a(I91
I119
I94
I119
tp662
a(I94
I119
I96
I119
tp663
a(I96
I119
I98
I119
tp664
a(I98
I119
I100
I119
tp665
a(I100
I119
I101
I119
tp666
a(I101
I119
I104
I119
tp667
a(I104
I119
I105
I119
tp668
a(I105
I119
I106
I119
tp669
a(I106
I119
I108
I119
tp670
a(I108
I119
I109
I119
tp671
a(I109
I119
I111
I119
tp672
a(I111
I119
I113
I119
tp673
atp674
a(g461
I7
(lp675
(I12
I135
I13
I134
tp676
a(I13
I134
I16
I134
tp677
a(I16
I134
I19
I134
tp678
a(I19
I134
I23
I134
tp679
a(I23
I134
I25
I134
tp680
a(I25
I134
I29
I134
tp681
a(I29
I134
I30
I134
tp682
a(I30
I134
I31
I134
tp683
a(I31
I134
I33
I134
tp684
a(I33
I134
I34
I134
tp685
a(I34
I134
I36
I134
tp686
a(I36
I134
I37
I134
tp687
a(I37
I134
I39
I134
tp688
a(I39
I134
I40
I134
tp689
a(I40
I134
I41
I134
tp690
a(I41
I134
I43
I134
tp691
a(I43
I134
I44
I134
tp692
a(I44
I134
I45
I134
tp693
a(I45
I134
I46
I134
tp694
a(I46
I134
I48
I134
tp695
a(I48
I134
I49
I134
tp696
a(I49
I134
I51
I134
tp697
a(I51
I134
I53
I134
tp698
a(I53
I134
I54
I134
tp699
a(I54
I134
I55
I134
tp700
a(I55
I134
I57
I136
tp701
a(I57
I136
I58
I136
tp702
a(I58
I136
I59
I136
tp703
a(I59
I136
I61
I136
tp704
a(I61
I136
I62
I137
tp705
a(I62
I137
I63
I137
tp706
a(I63
I137
I64
I137
tp707
a(I64
I137
I65
I137
tp708
a(I65
I137
I68
I137
tp709
a(I68
I137
I69
I137
tp710
a(I69
I137
I70
I137
tp711
a(I70
I137
I73
I137
tp712
a(I73
I137
I74
I138
tp713
a(I74
I138
I75
I138
tp714
a(I75
I138
I76
I138
tp715
a(I76
I138
I78
I138
tp716
a(I78
I138
I80
I138
tp717
a(I80
I138
I81
I139
tp718
a(I81
I139
I83
I139
tp719
a(I83
I139
I85
I139
tp720
a(I85
I139
I86
I139
tp721
a(I86
I139
I89
I139
tp722
a(I89
I139
I90
I139
tp723
a(I90
I139
I93
I141
tp724
a(I93
I141
I94
I141
tp725
a(I94
I141
I96
I141
tp726
a(I96
I141
I99
I141
tp727
a(I99
I141
I101
I141
tp728
a(I101
I141
I103
I141
tp729
a(I103
I141
I105
I141
tp730
a(I105
I141
I108
I141
tp731
a(I108
I141
I111
I141
tp732
a(I111
I141
I114
I141
tp733
a(I114
I141
I116
I141
tp734
a(I116
I141
I119
I141
tp735
a(I119
I141
I121
I141
tp736
a(I121
I141
I124
I141
tp737
a(I124
I141
I125
I141
tp738
a(I125
I141
I128
I141
tp739
a(I128
I141
I129
I141
tp740
a(I129
I141
I130
I141
tp741
a(I130
I141
I132
I141
tp742
a(I132
I141
I134
I141
tp743
a(I134
I141
I135
I141
tp744
a(I135
I141
I137
I141
tp745
a(I137
I141
I139
I141
tp746
a(I139
I141
I140
I141
tp747
a(I140
I141
I141
I141
tp748
atp749
a(g461
I8
(lp750
(I14
I156
I15
I156
tp751
a(I15
I156
I17
I156
tp752
a(I17
I156
I20
I156
tp753
a(I20
I156
I22
I156
tp754
a(I22
I156
I25
I156
tp755
a(I25
I156
I27
I156
tp756
a(I27
I156
I31
I156
tp757
a(I31
I156
I34
I156
tp758
a(I34
I156
I36
I156
tp759
a(I36
I156
I39
I156
tp760
a(I39
I156
I42
I156
tp761
a(I42
I156
I45
I156
tp762
a(I45
I156
I47
I156
tp763
a(I47
I156
I51
I156
tp764
a(I51
I156
I54
I156
tp765
a(I54
I156
I56
I156
tp766
a(I56
I156
I59
I156
tp767
a(I59
I156
I61
I156
tp768
a(I61
I156
I62
I156
tp769
a(I62
I156
I65
I156
tp770
a(I65
I156
I67
I156
tp771
a(I67
I156
I69
I156
tp772
a(I69
I156
I70
I156
tp773
a(I70
I156
I71
I156
tp774
a(I71
I156
I72
I156
tp775
a(I72
I156
I74
I156
tp776
a(I74
I156
I75
I156
tp777
a(I75
I156
I76
I156
tp778
a(I76
I156
I77
I156
tp779
a(I77
I156
I81
I156
tp780
a(I81
I156
I85
I156
tp781
a(I85
I156
I87
I156
tp782
a(I87
I156
I90
I156
tp783
a(I90
I156
I95
I156
tp784
a(I95
I156
I97
I156
tp785
a(I97
I156
I101
I156
tp786
a(I101
I156
I106
I156
tp787
a(I106
I156
I109
I156
tp788
a(I109
I156
I111
I156
tp789
a(I111
I156
I112
I156
tp790
a(I112
I156
I114
I156
tp791
a(I114
I156
I115
I156
tp792
a(I115
I156
I116
I156
tp793
atp794
a(g461
I9
(lp795
(I9
I175
I12
I175
tp796
a(I12
I175
I15
I175
tp797
a(I15
I175
I20
I175
tp798
a(I20
I175
I24
I175
tp799
a(I24
I175
I30
I175
tp800
a(I30
I175
I36
I175
tp801
a(I36
I175
I42
I175
tp802
a(I42
I175
I45
I175
tp803
a(I45
I175
I51
I175
tp804
a(I51
I175
I55
I175
tp805
a(I55
I175
I59
I175
tp806
a(I59
I175
I62
I175
tp807
a(I62
I175
I64
I175
tp808
a(I64
I175
I66
I175
tp809
a(I66
I175
I69
I175
tp810
a(I69
I175
I70
I175
tp811
a(I70
I175
I72
I175
tp812
a(I72
I175
I74
I175
tp813
a(I74
I175
I76
I175
tp814
a(I76
I175
I79
I175
tp815
a(I79
I175
I80
I175
tp816
a(I80
I175
I82
I175
tp817
a(I82
I175
I84
I175
tp818
a(I84
I175
I86
I175
tp819
a(I86
I175
I87
I175
tp820
a(I87
I175
I89
I175
tp821
a(I89
I175
I90
I175
tp822
a(I90
I175
I91
I175
tp823
a(I91
I175
I92
I176
tp824
a(I92
I176
I94
I176
tp825
a(I94
I176
I96
I177
tp826
a(I96
I177
I97
I177
tp827
a(I97
I177
I99
I177
tp828
a(I99
I177
I100
I177
tp829
a(I100
I177
I101
I178
tp830
a(I101
I178
I102
I178
tp831
a(I102
I178
I104
I178
tp832
a(I104
I178
I106
I178
tp833
a(I106
I178
I109
I178
tp834
a(I109
I178
I112
I178
tp835
a(I112
I178
I114
I178
tp836
a(I114
I178
I116
I178
tp837
a(I116
I178
I117
I178
tp838
a(I117
I178
I119
I178
tp839
a(I119
I178
I120
I178
tp840
a(I120
I178
I121
I178
tp841
atp842
a(g461
I10
(lp843
(I1
I200
I2
I200
tp844
a(I2
I200
I5
I200
tp845
a(I5
I200
I6
I200
tp846
a(I6
I200
I10
I200
tp847
a(I10
I200
I12
I200
tp848
a(I12
I200
I16
I200
tp849
a(I16
I200
I20
I200
tp850
a(I20
I200
I23
I200
tp851
a(I23
I200
I26
I200
tp852
a(I26
I200
I30
I200
tp853
a(I30
I200
I33
I200
tp854
a(I33
I200
I36
I200
tp855
a(I36
I200
I40
I200
tp856
a(I40
I200
I42
I200
tp857
a(I42
I200
I45
I200
tp858
a(I45
I200
I48
I200
tp859
a(I48
I200
I52
I200
tp860
a(I52
I200
I56
I200
tp861
a(I56
I200
I60
I200
tp862
a(I60
I200
I63
I200
tp863
a(I63
I200
I66
I200
tp864
a(I66
I200
I71
I200
tp865
a(I71
I200
I75
I200
tp866
a(I75
I200
I78
I200
tp867
a(I78
I200
I82
I200
tp868
a(I82
I200
I86
I200
tp869
a(I86
I200
I90
I200
tp870
a(I90
I200
I93
I200
tp871
a(I93
I200
I97
I200
tp872
a(I97
I200
I101
I200
tp873
a(I101
I200
I105
I200
tp874
a(I105
I200
I108
I200
tp875
a(I108
I200
I113
I200
tp876
a(I113
I200
I118
I200
tp877
a(I118
I200
I123
I200
tp878
a(I123
I200
I129
I200
tp879
a(I129
I200
I134
I200
tp880
a(I134
I200
I138
I200
tp881
a(I138
I200
I141
I200
tp882
a(I141
I200
I143
I200
tp883
a(I143
I200
I144
I200
tp884
a(I144
I200
I145
I200
tp885
a(I145
I200
I146
I200
tp886
atp887
a(g461
I11
(lp888
(I7
I215
I8
I215
tp889
a(I8
I215
I12
I215
tp890
a(I12
I215
I18
I215
tp891
a(I18
I215
I25
I215
tp892
a(I25
I215
I32
I215
tp893
a(I32
I215
I39
I215
tp894
a(I39
I215
I47
I215
tp895
a(I47
I215
I54
I215
tp896
a(I54
I215
I61
I215
tp897
a(I61
I215
I68
I215
tp898
a(I68
I215
I81
I215
tp899
a(I81
I215
I94
I215
tp900
a(I94
I215
I101
I215
tp901
a(I101
I215
I113
I215
tp902
a(I113
I215
I123
I216
tp903
a(I123
I216
I128
I216
tp904
a(I128
I216
I136
I216
tp905
a(I136
I216
I145
I216
tp906
a(I145
I216
I149
I216
tp907
a(I149
I216
I154
I216
tp908
a(I154
I216
I160
I216
tp909
a(I160
I216
I163
I216
tp910
a(I163
I216
I169
I216
tp911
a(I169
I216
I174
I216
tp912
a(I174
I216
I176
I216
tp913
a(I176
I216
I178
I216
tp914
atp915
a(g461
I12
(lp916
(I8
I235
I9
I236
tp917
a(I9
I236
I12
I234
tp918
a(I12
I234
I17
I234
tp919
a(I17
I234
I20
I234
tp920
a(I20
I234
I24
I233
tp921
a(I24
I233
I28
I233
tp922
a(I28
I233
I30
I233
tp923
a(I30
I233
I33
I233
tp924
a(I33
I233
I35
I233
tp925
a(I35
I233
I38
I233
tp926
a(I38
I233
I40
I233
tp927
a(I40
I233
I43
I233
tp928
a(I43
I233
I45
I233
tp929
a(I45
I233
I48
I233
tp930
a(I48
I233
I52
I233
tp931
a(I52
I233
I54
I233
tp932
a(I54
I233
I57
I233
tp933
a(I57
I233
I59
I233
tp934
a(I59
I233
I63
I233
tp935
a(I63
I233
I65
I233
tp936
a(I65
I233
I69
I233
tp937
a(I69
I233
I72
I233
tp938
a(I72
I233
I74
I233
tp939
a(I74
I233
I78
I233
tp940
a(I78
I233
I82
I233
tp941
a(I82
I233
I84
I233
tp942
a(I84
I233
I87
I233
tp943
a(I87
I233
I91
I233
tp944
a(I91
I233
I95
I233
tp945
a(I95
I233
I100
I233
tp946
a(I100
I233
I104
I233
tp947
a(I104
I233
I109
I233
tp948
a(I109
I233
I113
I233
tp949
a(I113
I233
I117
I233
tp950
a(I117
I233
I119
I233
tp951
a(I119
I233
I122
I233
tp952
a(I122
I233
I124
I233
tp953
a(I124
I233
I125
I233
tp954
a(I125
I233
I127
I233
tp955
a(I127
I233
I129
I233
tp956
a(I129
I233
I130
I233
tp957
a(I130
I233
I133
I233
tp958
a(I133
I233
I134
I233
tp959
a(I134
I233
I137
I233
tp960
a(I137
I233
I138
I233
tp961
a(I138
I233
I139
I233
tp962
a(I139
I233
I140
I233
tp963
a(I140
I233
I142
I233
tp964
a(I142
I233
I143
I233
tp965
a(I143
I233
I144
I233
tp966
a(I144
I233
I145
I233
tp967
a(I145
I233
I148
I233
tp968
a(I148
I233
I150
I233
tp969
a(I150
I233
I154
I233
tp970
a(I154
I233
I157
I233
tp971
a(I157
I233
I159
I233
tp972
a(I159
I233
I160
I233
tp973
a(I160
I233
I163
I233
tp974
a(I163
I233
I164
I233
tp975
atp976
a(g461
I13
(lp977
(I10
I252
I14
I252
tp978
a(I14
I252
I19
I252
tp979
a(I19
I252
I26
I252
tp980
a(I26
I252
I33
I253
tp981
a(I33
I253
I40
I253
tp982
a(I40
I253
I47
I255
tp983
a(I47
I255
I57
I255
tp984
a(I57
I255
I59
I255
tp985
a(I59
I255
I62
I256
tp986
a(I62
I256
I64
I256
tp987
a(I64
I256
I65
I256
tp988
a(I65
I256
I67
I256
tp989
a(I67
I256
I71
I256
tp990
a(I71
I256
I72
I256
tp991
a(I72
I256
I75
I256
tp992
a(I75
I256
I77
I256
tp993
a(I77
I256
I79
I256
tp994
a(I79
I256
I81
I256
tp995
a(I81
I256
I84
I256
tp996
a(I84
I256
I85
I256
tp997
a(I85
I256
I92
I257
tp998
a(I92
I257
I97
I257
tp999
a(I97
I257
I100
I258
tp1000
a(I100
I258
I106
I258
tp1001
a(I106
I258
I111
I258
tp1002
a(I111
I258
I112
I258
tp1003
a(I112
I258
I118
I259
tp1004
a(I118
I259
I122
I260
tp1005
a(I122
I260
I126
I260
tp1006
a(I126
I260
I134
I260
tp1007
a(I134
I260
I139
I261
tp1008
a(I139
I261
I141
I261
tp1009
a(I141
I261
I142
I262
tp1010
atp1011
a(g461
I14
(lp1012
(I5
I275
I6
I275
tp1013
a(I6
I275
I10
I275
tp1014
a(I10
I275
I16
I277
tp1015
a(I16
I277
I21
I277
tp1016
a(I21
I277
I25
I277
tp1017
a(I25
I277
I29
I277
tp1018
a(I29
I277
I33
I277
tp1019
a(I33
I277
I35
I277
tp1020
a(I35
I277
I39
I277
tp1021
a(I39
I277
I42
I277
tp1022
a(I42
I277
I44
I277
tp1023
a(I44
I277
I48
I277
tp1024
a(I48
I277
I52
I277
tp1025
a(I52
I277
I54
I277
tp1026
a(I54
I277
I58
I277
tp1027
a(I58
I277
I60
I278
tp1028
a(I60
I278
I65
I278
tp1029
a(I65
I278
I69
I278
tp1030
a(I69
I278
I73
I279
tp1031
a(I73
I279
I77
I279
tp1032
a(I77
I279
I79
I279
tp1033
a(I79
I279
I83
I279
tp1034
a(I83
I279
I85
I279
tp1035
a(I85
I279
I88
I279
tp1036
a(I88
I279
I90
I279
tp1037
a(I90
I279
I93
I279
tp1038
a(I93
I279
I97
I279
tp1039
a(I97
I279
I100
I279
tp1040
a(I100
I279
I104
I279
tp1041
a(I104
I279
I108
I280
tp1042
a(I108
I280
I110
I280
tp1043
a(I110
I280
I114
I280
tp1044
a(I114
I280
I118
I280
tp1045
a(I118
I280
I120
I280
tp1046
a(I120
I280
I124
I282
tp1047
a(I124
I282
I128
I282
tp1048
a(I128
I282
I132
I282
tp1049
a(I132
I282
I137
I282
tp1050
a(I137
I282
I142
I282
tp1051
a(I142
I282
I145
I282
tp1052
a(I145
I282
I149
I282
tp1053
a(I149
I282
I153
I282
tp1054
a(I153
I282
I155
I282
tp1055
a(I155
I282
I158
I283
tp1056
a(I158
I283
I160
I283
tp1057
a(I160
I283
I163
I283
tp1058
a(I163
I283
I164
I283
tp1059
a(I164
I283
I165
I283
tp1060
atp1061
a(g461
I15
(lp1062
(I8
I299
I9
I300
tp1063
a(I9
I300
I11
I300
tp1064
a(I11
I300
I15
I300
tp1065
a(I15
I300
I18
I300
tp1066
a(I18
I300
I22
I300
tp1067
a(I22
I300
I27
I300
tp1068
a(I27
I300
I30
I300
tp1069
a(I30
I300
I33
I300
tp1070
a(I33
I300
I36
I300
tp1071
a(I36
I300
I38
I300
tp1072
a(I38
I300
I41
I300
tp1073
a(I41
I300
I43
I300
tp1074
a(I43
I300
I46
I300
tp1075
a(I46
I300
I48
I300
tp1076
a(I48
I300
I51
I300
tp1077
a(I51
I300
I55
I300
tp1078
a(I55
I300
I58
I300
tp1079
a(I58
I300
I63
I300
tp1080
a(I63
I300
I67
I300
tp1081
a(I67
I300
I72
I300
tp1082
a(I72
I300
I76
I300
tp1083
a(I76
I300
I81
I300
tp1084
a(I81
I300
I87
I300
tp1085
a(I87
I300
I91
I300
tp1086
a(I91
I300
I95
I300
tp1087
a(I95
I300
I101
I300
tp1088
a(I101
I300
I107
I300
tp1089
a(I107
I300
I115
I300
tp1090
a(I115
I300
I122
I300
tp1091
a(I122
I300
I129
I300
tp1092
a(I129
I300
I137
I300
tp1093
a(I137
I300
I144
I300
tp1094
a(I144
I300
I147
I300
tp1095
a(I147
I300
I152
I300
tp1096
a(I152
I300
I156
I301
tp1097
a(I156
I301
I159
I301
tp1098
a(I159
I301
I160
I301
tp1099
a(I160
I301
I163
I301
tp1100
a(I163
I301
I165
I301
tp1101
a(I165
I301
I168
I303
tp1102
a(I168
I303
I170
I303
tp1103
a(I170
I303
I173
I303
tp1104
a(I173
I303
I175
I303
tp1105
a(I175
I303
I178
I304
tp1106
a(I178
I304
I180
I304
tp1107
atp1108
a(g461
I16
(lp1109
(I8
I318
I10
I318
tp1110
a(I10
I318
I18
I318
tp1111
a(I18
I318
I31
I318
tp1112
a(I31
I318
I44
I318
tp1113
a(I44
I318
I56
I318
tp1114
a(I56
I318
I62
I318
tp1115
a(I62
I318
I66
I318
tp1116
a(I66
I318
I70
I318
tp1117
a(I70
I318
I71
I318
tp1118
a(I71
I318
I72
I318
tp1119
a(I72
I318
I73
I318
tp1120
a(I73
I318
I80
I319
tp1121
a(I80
I319
I83
I319
tp1122
a(I83
I319
I92
I320
tp1123
a(I92
I320
I96
I321
tp1124
a(I96
I321
I105
I321
tp1125
a(I105
I321
I112
I322
tp1126
a(I112
I322
I116
I324
tp1127
a(I116
I324
I122
I324
tp1128
a(I122
I324
I127
I324
tp1129
a(I127
I324
I128
I324
tp1130
a(I128
I324
I132
I325
tp1131
a(I132
I325
I138
I326
tp1132
a(I138
I326
I140
I326
tp1133
a(I140
I326
I146
I326
tp1134
a(I146
I326
I151
I327
tp1135
a(I151
I327
I153
I327
tp1136
a(I153
I327
I157
I329
tp1137
a(I157
I329
I161
I329
tp1138
a(I161
I329
I162
I329
tp1139
a(I162
I329
I163
I329
tp1140
a(I163
I329
I165
I330
tp1141
a(I165
I330
I166
I330
tp1142
a(I166
I330
I168
I331
tp1143
a(I168
I331
I173
I332
tp1144
a(I173
I332
I176
I332
tp1145
a(I176
I332
I180
I332
tp1146
a(I180
I332
I182
I333
tp1147
a(I182
I333
I183
I334
tp1148
atp1149
a.