(lp0
(VGreen
p1
I1
(lp2
(I298
I413
I302
I413
tp3
a(I302
I413
I304
I413
tp4
a(I304
I413
I307
I413
tp5
a(I307
I413
I309
I413
tp6
a(I309
I413
I310
I413
tp7
a(I310
I413
I314
I412
tp8
a(I314
I412
I315
I411
tp9
a(I315
I411
I319
I411
tp10
a(I319
I411
I322
I410
tp11
a(I322
I410
I324
I408
tp12
a(I324
I408
I327
I406
tp13
a(I327
I406
I330
I404
tp14
a(I330
I404
I332
I402
tp15
a(I332
I402
I335
I400
tp16
a(I335
I400
I336
I398
tp17
a(I336
I398
I338
I396
tp18
a(I338
I396
I339
I395
tp19
a(I339
I395
I340
I394
tp20
a(I340
I394
I341
I393
tp21
a(I341
I393
I343
I391
tp22
a(I343
I391
I344
I388
tp23
a(I344
I388
I345
I387
tp24
a(I345
I387
I347
I383
tp25
a(I347
I383
I349
I381
tp26
a(I349
I381
I350
I377
tp27
a(I350
I377
I351
I374
tp28
a(I351
I374
I353
I371
tp29
a(I353
I371
I354
I370
tp30
a(I354
I370
I354
I368
tp31
a(I354
I368
I354
I367
tp32
a(I354
I367
I354
I364
tp33
a(I354
I364
I356
I361
tp34
a(I356
I361
I356
I359
tp35
a(I356
I359
I356
I357
tp36
a(I356
I357
I358
I354
tp37
a(I358
I354
I358
I353
tp38
a(I358
I353
I358
I351
tp39
a(I358
I351
I359
I348
tp40
a(I359
I348
I359
I347
tp41
a(I359
I347
I360
I344
tp42
a(I360
I344
I360
I342
tp43
a(I360
I342
I360
I339
tp44
a(I360
I339
I360
I338
tp45
a(I360
I338
I360
I336
tp46
a(I360
I336
I360
I334
tp47
a(I360
I334
I361
I332
tp48
a(I361
I332
I361
I331
tp49
a(I361
I331
I361
I328
tp50
a(I361
I328
I361
I327
tp51
a(I361
I327
I361
I324
tp52
a(I361
I324
I361
I323
tp53
a(I361
I323
I361
I322
tp54
a(I361
I322
I361
I319
tp55
a(I361
I319
I361
I318
tp56
a(I361
I318
I361
I317
tp57
a(I361
I317
I361
I316
tp58
a(I361
I316
I361
I314
tp59
a(I361
I314
I361
I313
tp60
a(I361
I313
I361
I311
tp61
a(I361
I311
I361
I309
tp62
a(I361
I309
I361
I308
tp63
a(I361
I308
I361
I306
tp64
a(I361
I306
I361
I304
tp65
a(I361
I304
I361
I303
tp66
a(I361
I303
I361
I301
tp67
a(I361
I301
I361
I299
tp68
a(I361
I299
I361
I297
tp69
a(I361
I297
I361
I296
tp70
a(I361
I296
I361
I294
tp71
a(I361
I294
I361
I293
tp72
a(I361
I293
I361
I292
tp73
a(I361
I292
I361
I291
tp74
a(I361
I291
I361
I289
tp75
a(I361
I289
I361
I288
tp76
a(I361
I288
I361
I287
tp77
a(I361
I287
I361
I286
tp78
a(I361
I286
I361
I284
tp79
a(I361
I284
I361
I283
tp80
a(I361
I283
I360
I282
tp81
a(I360
I282
I360
I281
tp82
a(I360
I281
I360
I279
tp83
a(I360
I279
I360
I278
tp84
a(I360
I278
I359
I276
tp85
a(I359
I276
I358
I275
tp86
a(I358
I275
I358
I274
tp87
a(I358
I274
I358
I273
tp88
a(I358
I273
I357
I272
tp89
a(I357
I272
I354
I273
tp90
a(I354
I273
I352
I275
tp91
a(I352
I275
I350
I278
tp92
a(I350
I278
I349
I279
tp93
a(I349
I279
I347
I281
tp94
a(I347
I281
I346
I283
tp95
a(I346
I283
I345
I284
tp96
a(I345
I284
I343
I286
tp97
a(I343
I286
I342
I287
tp98
a(I342
I287
I341
I288
tp99
a(I341
I288
I340
I289
tp100
a(I340
I289
I339
I290
tp101
a(I339
I290
I337
I292
tp102
a(I337
I292
I335
I294
tp103
a(I335
I294
I332
I298
tp104
a(I332
I298
I329
I301
tp105
a(I329
I301
I323
I305
tp106
a(I323
I305
I320
I307
tp107
a(I320
I307
I316
I309
tp108
a(I316
I309
I312
I311
tp109
a(I312
I311
I308
I313
tp110
a(I308
I313
I306
I313
tp111
a(I306
I313
I304
I313
tp112
a(I304
I313
I303
I314
tp113
a(I303
I314
I301
I313
tp114
a(I301
I313
I299
I313
tp115
a(I299
I313
I298
I312
tp116
a(I298
I312
I296
I311
tp117
a(I296
I311
I292
I309
tp118
a(I292
I309
I289
I307
tp119
a(I289
I307
I286
I305
tp120
a(I286
I305
I283
I304
tp121
a(I283
I304
I281
I302
tp122
a(I281
I302
I280
I301
tp123
a(I280
I301
I278
I300
tp124
a(I278
I300
I276
I298
tp125
a(I276
I298
I274
I296
tp126
a(I274
I296
I273
I295
tp127
a(I273
I295
I271
I293
tp128
a(I271
I293
I270
I291
tp129
a(I270
I291
I270
I288
tp130
a(I270
I288
I268
I286
tp131
a(I268
I286
I267
I284
tp132
a(I267
I284
I267
I281
tp133
a(I267
I281
I266
I278
tp134
a(I266
I278
I266
I277
tp135
a(I266
I277
I266
I274
tp136
a(I266
I274
I266
I272
tp137
a(I266
I272
I266
I269
tp138
a(I266
I269
I266
I267
tp139
a(I266
I267
I266
I263
tp140
a(I266
I263
I266
I261
tp141
a(I266
I261
I266
I257
tp142
a(I266
I257
I266
I254
tp143
a(I266
I254
I266
I253
tp144
a(I266
I253
I266
I251
tp145
a(I266
I251
I266
I249
tp146
a(I266
I249
I266
I248
tp147
a(I266
I248
I266
I247
tp148
a(I266
I247
I266
I246
tp149
a(I266
I246
I268
I244
tp150
a(I268
I244
I269
I243
tp151
a(I269
I243
I270
I242
tp152
a(I270
I242
I271
I241
tp153
a(I271
I241
I272
I240
tp154
a(I272
I240
I273
I239
tp155
a(I273
I239
I274
I238
tp156
a(I274
I238
I275
I237
tp157
a(I275
I237
I276
I236
tp158
a(I276
I236
I277
I236
tp159
a(I277
I236
I278
I235
tp160
a(I278
I235
I280
I234
tp161
a(I280
I234
I281
I233
tp162
a(I281
I233
I282
I233
tp163
a(I282
I233
I284
I232
tp164
a(I284
I232
I285
I231
tp165
a(I285
I231
I286
I228
tp166
a(I286
I228
I285
I225
tp167
a(I285
I225
I283
I222
tp168
a(I283
I222
I280
I217
tp169
a(I280
I217
I274
I209
tp170
a(I274
I209
I272
I205
tp171
a(I272
I205
I270
I203
tp172
a(I270
I203
I269
I201
tp173
a(I269
I201
I269
I200
tp174
a(I269
I200
I268
I198
tp175
a(I268
I198
I268
I197
tp176
a(I268
I197
I268
I196
tp177
a(I268
I196
I268
I195
tp178
a(I268
I195
I267
I194
tp179
a(I267
I194
I267
I192
tp180
a(I267
I192
I267
I191
tp181
a(I267
I191
I267
I189
tp182
a(I267
I189
I267
I187
tp183
a(I267
I187
I267
I185
tp184
a(I267
I185
I267
I181
tp185
a(I267
I181
I267
I179
tp186
a(I267
I179
I267
I175
tp187
a(I267
I175
I267
I172
tp188
a(I267
I172
I268
I170
tp189
a(I268
I170
I271
I166
tp190
a(I271
I166
I273
I162
tp191
a(I273
I162
I276
I160
tp192
a(I276
I160
I279
I156
tp193
a(I279
I156
I282
I154
tp194
a(I282
I154
I283
I153
tp195
a(I283
I153
I285
I152
tp196
a(I285
I152
I287
I152
tp197
a(I287
I152
I288
I152
tp198
a(I288
I152
I292
I150
tp199
a(I292
I150
I295
I150
tp200
a(I295
I150
I298
I150
tp201
a(I298
I150
I302
I150
tp202
a(I302
I150
I307
I150
tp203
a(I307
I150
I313
I150
tp204
a(I313
I150
I322
I150
tp205
a(I322
I150
I331
I150
tp206
a(I331
I150
I338
I150
tp207
a(I338
I150
I341
I150
tp208
a(I341
I150
I344
I150
tp209
a(I344
I150
I345
I150
tp210
a(I345
I150
I346
I151
tp211
a(I346
I151
I347
I151
tp212
a(I347
I151
I348
I152
tp213
a(I348
I152
I349
I153
tp214
a(I349
I153
I349
I155
tp215
a(I349
I155
I350
I157
tp216
a(I350
I157
I350
I160
tp217
a(I350
I160
I351
I161
tp218
a(I351
I161
I351
I160
tp219
a(I351
I160
I351
I156
tp220
a(I351
I156
I351
I153
tp221
a(I351
I153
I351
I149
tp222
a(I351
I149
I351
I145
tp223
a(I351
I145
I353
I141
tp224
a(I353
I141
I354
I138
tp225
a(I354
I138
I354
I134
tp226
a(I354
I134
I355
I129
tp227
a(I355
I129
I356
I125
tp228
a(I356
I125
I358
I121
tp229
a(I358
I121
I359
I119
tp230
a(I359
I119
I360
I116
tp231
a(I360
I116
I361
I114
tp232
a(I361
I114
I362
I112
tp233
a(I362
I112
I364
I108
tp234
a(I364
I108
I365
I105
tp235
a(I365
I105
I367
I102
tp236
a(I367
I102
I369
I100
tp237
a(I369
I100
I372
I98
tp238
a(I372
I98
I374
I96
tp239
a(I374
I96
I377
I94
tp240
a(I377
I94
I378
I93
tp241
a(I378
I93
I383
I90
tp242
a(I383
I90
I384
I89
tp243
a(I384
I89
I388
I88
tp244
a(I388
I88
I390
I87
tp245
a(I390
I87
I394
I86
tp246
a(I394
I86
I395
I85
tp247
a(I395
I85
I397
I85
tp248
a(I397
I85
I398
I85
tp249
a(I398
I85
I399
I85
tp250
a(I399
I85
I402
I85
tp251
a(I402
I85
I405
I87
tp252
a(I405
I87
I409
I93
tp253
a(I409
I93
I412
I98
tp254
a(I412
I98
I416
I103
tp255
a(I416
I103
I419
I108
tp256
a(I419
I108
I422
I112
tp257
a(I422
I112
I426
I119
tp258
a(I426
I119
I430
I124
tp259
a(I430
I124
I430
I129
tp260
a(I430
I129
I431
I130
tp261
a(I431
I130
I431
I131
tp262
a(I431
I131
I432
I133
tp263
a(I432
I133
I432
I134
tp264
a(I432
I134
I435
I135
tp265
a(I435
I135
I439
I132
tp266
a(I439
I132
I443
I128
tp267
a(I443
I128
I448
I123
tp268
a(I448
I123
I453
I119
tp269
a(I453
I119
I463
I111
tp270
a(I463
I111
I470
I106
tp271
a(I470
I106
I477
I101
tp272
a(I477
I101
I483
I99
tp273
a(I483
I99
I488
I97
tp274
a(I488
I97
I491
I97
tp275
a(I491
I97
I493
I95
tp276
a(I493
I95
I494
I95
tp277
a(I494
I95
I495
I95
tp278
a(I495
I95
I496
I94
tp279
a(I496
I94
I497
I94
tp280
a(I497
I94
I500
I94
tp281
a(I500
I94
I501
I94
tp282
a(I501
I94
I502
I94
tp283
a(I502
I94
I505
I94
tp284
a(I505
I94
I506
I94
tp285
a(I506
I94
I510
I96
tp286
a(I510
I96
I511
I97
tp287
a(I511
I97
I515
I99
tp288
a(I515
I99
I517
I101
tp289
a(I517
I101
I520
I103
tp290
a(I520
I103
I523
I106
tp291
a(I523
I106
I525
I108
tp292
a(I525
I108
I527
I110
tp293
a(I527
I110
I530
I114
tp294
a(I530
I114
I531
I117
tp295
a(I531
I117
I532
I119
tp296
a(I532
I119
I533
I121
tp297
a(I533
I121
I535
I126
tp298
a(I535
I126
I535
I129
tp299
a(I535
I129
I536
I132
tp300
a(I536
I132
I536
I136
tp301
a(I536
I136
I536
I139
tp302
a(I536
I139
I536
I142
tp303
a(I536
I142
I536
I145
tp304
a(I536
I145
I536
I147
tp305
a(I536
I147
I536
I151
tp306
a(I536
I151
I535
I152
tp307
a(I535
I152
I533
I156
tp308
a(I533
I156
I532
I157
tp309
a(I532
I157
I529
I160
tp310
a(I529
I160
I528
I161
tp311
a(I528
I161
I525
I164
tp312
a(I525
I164
I523
I166
tp313
a(I523
I166
I520
I168
tp314
a(I520
I168
I516
I171
tp315
a(I516
I171
I513
I172
tp316
a(I513
I172
I509
I175
tp317
a(I509
I175
I506
I177
tp318
a(I506
I177
I503
I178
tp319
a(I503
I178
I501
I180
tp320
a(I501
I180
I500
I181
tp321
a(I500
I181
I498
I182
tp322
a(I498
I182
I497
I183
tp323
a(I497
I183
I497
I185
tp324
a(I497
I185
I499
I188
tp325
a(I499
I188
I502
I191
tp326
a(I502
I191
I506
I197
tp327
a(I506
I197
I510
I202
tp328
a(I510
I202
I514
I206
tp329
a(I514
I206
I521
I211
tp330
a(I521
I211
I525
I215
tp331
a(I525
I215
I528
I219
tp332
a(I528
I219
I531
I223
tp333
a(I531
I223
I534
I228
tp334
a(I534
I228
I537
I231
tp335
a(I537
I231
I540
I238
tp336
a(I540
I238
I541
I243
tp337
a(I541
I243
I543
I246
tp338
a(I543
I246
I545
I249
tp339
a(I545
I249
I545
I250
tp340
a(I545
I250
I546
I251
tp341
a(I546
I251
I546
I252
tp342
a(I546
I252
I546
I253
tp343
a(I546
I253
I547
I255
tp344
a(I547
I255
I547
I256
tp345
a(I547
I256
I547
I257
tp346
a(I547
I257
I547
I260
tp347
a(I547
I260
I547
I261
tp348
a(I547
I261
I547
I262
tp349
a(I547
I262
I547
I266
tp350
a(I547
I266
I545
I269
tp351
a(I545
I269
I542
I272
tp352
a(I542
I272
I539
I273
tp353
a(I539
I273
I537
I274
tp354
a(I537
I274
I534
I276
tp355
a(I534
I276
I533
I276
tp356
a(I533
I276
I531
I276
tp357
a(I531
I276
I530
I276
tp358
a(I530
I276
I529
I276
tp359
a(I529
I276
I528
I276
tp360
a(I528
I276
I525
I276
tp361
a(I525
I276
I523
I276
tp362
a(I523
I276
I521
I276
tp363
a(I521
I276
I519
I276
tp364
a(I519
I276
I518
I276
tp365
a(I518
I276
I516
I276
tp366
a(I516
I276
I515
I276
tp367
a(I515
I276
I514
I276
tp368
a(I514
I276
I513
I276
tp369
a(I513
I276
I511
I276
tp370
a(I511
I276
I510
I276
tp371
a(I510
I276
I511
I276
tp372
a(I511
I276
I514
I278
tp373
a(I514
I278
I517
I281
tp374
a(I517
I281
I519
I283
tp375
a(I519
I283
I522
I286
tp376
a(I522
I286
I523
I288
tp377
a(I523
I288
I525
I292
tp378
a(I525
I292
I526
I293
tp379
a(I526
I293
I527
I295
tp380
a(I527
I295
I527
I297
tp381
a(I527
I297
I527
I298
tp382
a(I527
I298
I527
I300
tp383
a(I527
I300
I527
I302
tp384
a(I527
I302
I527
I303
tp385
a(I527
I303
I527
I306
tp386
a(I527
I306
I526
I308
tp387
a(I526
I308
I525
I309
tp388
a(I525
I309
I523
I311
tp389
a(I523
I311
I520
I314
tp390
a(I520
I314
I518
I316
tp391
a(I518
I316
I516
I318
tp392
a(I516
I318
I514
I319
tp393
a(I514
I319
I509
I322
tp394
a(I509
I322
I506
I323
tp395
a(I506
I323
I504
I323
tp396
a(I504
I323
I499
I324
tp397
a(I499
I324
I496
I325
tp398
a(I496
I325
I493
I325
tp399
a(I493
I325
I489
I325
tp400
a(I489
I325
I485
I325
tp401
a(I485
I325
I479
I325
tp402
a(I479
I325
I472
I325
tp403
a(I472
I325
I458
I325
tp404
a(I458
I325
I446
I323
tp405
a(I446
I323
I435
I321
tp406
a(I435
I321
I426
I321
tp407
a(I426
I321
I418
I321
tp408
a(I418
I321
I412
I321
tp409
a(I412
I321
I410
I321
tp410
a(I410
I321
I409
I320
tp411
a(I409
I320
I408
I320
tp412
a(I408
I320
I407
I319
tp413
a(I407
I319
I405
I317
tp414
a(I405
I317
I404
I317
tp415
a(I404
I317
I403
I316
tp416
a(I403
I316
I401
I315
tp417
a(I401
I315
I399
I313
tp418
a(I399
I313
I398
I312
tp419
a(I398
I312
I397
I311
tp420
a(I397
I311
I397
I309
tp421
a(I397
I309
I396
I307
tp422
a(I396
I307
I395
I306
tp423
a(I395
I306
I395
I305
tp424
a(I395
I305
I395
I303
tp425
a(I395
I303
I395
I302
tp426
a(I395
I302
I395
I301
tp427
a(I395
I301
I395
I299
tp428
a(I395
I299
I395
I298
tp429
a(I395
I298
I395
I297
tp430
a(I395
I297
I395
I294
tp431
a(I395
I294
I395
I293
tp432
a(I395
I293
I395
I292
tp433
a(I395
I292
I395
I291
tp434
a(I395
I291
I395
I289
tp435
a(I395
I289
I395
I288
tp436
a(I395
I288
I395
I287
tp437
a(I395
I287
I395
I286
tp438
a(I395
I286
I394
I283
tp439
a(I394
I283
I393
I282
tp440
a(I393
I282
I393
I279
tp441
a(I393
I279
I392
I277
tp442
a(I392
I277
I392
I276
tp443
a(I392
I276
I390
I274
tp444
a(I390
I274
I390
I273
tp445
a(I390
I273
I390
I272
tp446
a(I390
I272
I390
I273
tp447
a(I390
I273
I391
I275
tp448
a(I391
I275
I392
I279
tp449
a(I392
I279
I394
I283
tp450
a(I394
I283
I395
I285
tp451
a(I395
I285
I395
I287
tp452
a(I395
I287
I396
I289
tp453
a(I396
I289
I397
I291
tp454
a(I397
I291
I397
I292
tp455
a(I397
I292
I398
I293
tp456
a(I398
I293
I399
I294
tp457
a(I399
I294
I400
I296
tp458
a(I400
I296
I400
I298
tp459
a(I400
I298
I400
I299
tp460
a(I400
I299
I400
I301
tp461
a(I400
I301
I400
I302
tp462
a(I400
I302
I400
I303
tp463
a(I400
I303
I401
I304
tp464
a(I401
I304
I401
I306
tp465
a(I401
I306
I401
I308
tp466
a(I401
I308
I401
I309
tp467
a(I401
I309
I401
I311
tp468
a(I401
I311
I401
I312
tp469
a(I401
I312
I401
I314
tp470
a(I401
I314
I401
I316
tp471
a(I401
I316
I401
I318
tp472
a(I401
I318
I401
I319
tp473
a(I401
I319
I401
I321
tp474
a(I401
I321
I401
I322
tp475
a(I401
I322
I401
I323
tp476
a(I401
I323
I401
I324
tp477
a(I401
I324
I401
I326
tp478
a(I401
I326
I401
I327
tp479
a(I401
I327
I401
I328
tp480
a(I401
I328
I401
I331
tp481
a(I401
I331
I401
I333
tp482
a(I401
I333
I401
I336
tp483
a(I401
I336
I401
I337
tp484
a(I401
I337
I401
I339
tp485
a(I401
I339
I401
I342
tp486
a(I401
I342
I401
I344
tp487
a(I401
I344
I401
I347
tp488
a(I401
I347
I401
I349
tp489
a(I401
I349
I401
I351
tp490
a(I401
I351
I401
I352
tp491
a(I401
I352
I402
I354
tp492
a(I402
I354
I404
I358
tp493
a(I404
I358
I405
I359
tp494
a(I405
I359
I406
I361
tp495
a(I406
I361
I407
I363
tp496
a(I407
I363
I409
I365
tp497
a(I409
I365
I409
I366
tp498
a(I409
I366
I409
I368
tp499
a(I409
I368
I410
I369
tp500
a(I410
I369
I411
I372
tp501
a(I411
I372
I412
I374
tp502
a(I412
I374
I414
I376
tp503
a(I414
I376
I415
I377
tp504
a(I415
I377
I417
I380
tp505
a(I417
I380
I419
I381
tp506
a(I419
I381
I421
I383
tp507
a(I421
I383
I422
I384
tp508
a(I422
I384
I423
I384
tp509
a(I423
I384
I424
I385
tp510
a(I424
I385
I425
I385
tp511
a(I425
I385
I426
I385
tp512
a(I426
I385
I428
I385
tp513
a(I428
I385
I429
I385
tp514
a(I429
I385
I430
I385
tp515
a(I430
I385
I433
I385
tp516
a(I433
I385
I434
I385
tp517
a(I434
I385
I435
I386
tp518
a(I435
I386
I436
I387
tp519
a(I436
I387
I438
I387
tp520
a(I438
I387
I440
I387
tp521
a(I440
I387
I441
I388
tp522
a(I441
I388
I443
I388
tp523
a(I443
I388
I445
I388
tp524
a(I445
I388
I447
I389
tp525
a(I447
I389
I449
I390
tp526
a(I449
I390
I450
I390
tp527
a(I450
I390
I451
I390
tp528
a(I451
I390
I454
I391
tp529
a(I454
I391
I455
I392
tp530
a(I455
I392
I458
I393
tp531
a(I458
I393
I459
I393
tp532
a(I459
I393
I461
I394
tp533
a(I461
I394
I464
I395
tp534
a(I464
I395
I465
I395
tp535
a(I465
I395
I468
I397
tp536
a(I468
I397
I470
I398
tp537
a(I470
I398
I471
I398
tp538
a(I471
I398
I474
I400
tp539
a(I474
I400
I475
I400
tp540
a(I475
I400
I476
I400
tp541
a(I476
I400
I479
I400
tp542
a(I479
I400
I481
I402
tp543
a(I481
I402
I483
I402
tp544
a(I483
I402
I485
I403
tp545
a(I485
I403
I488
I403
tp546
a(I488
I403
I489
I403
tp547
a(I489
I403
I491
I404
tp548
a(I491
I404
I493
I404
tp549
a(I493
I404
I495
I405
tp550
a(I495
I405
I496
I405
tp551
a(I496
I405
I500
I407
tp552
a(I500
I407
I503
I407
tp553
a(I503
I407
I504
I407
tp554
a(I504
I407
I506
I407
tp555
a(I506
I407
I510
I407
tp556
a(I510
I407
I511
I407
tp557
a(I511
I407
I513
I407
tp558
a(I513
I407
I514
I407
tp559
atp560
a(S'Black'
p561
I1
(lp562
(I128
I105
I132
I107
tp563
a(I132
I107
I137
I109
tp564
a(I137
I109
I147
I109
tp565
a(I147
I109
I159
I109
tp566
a(I159
I109
I171
I109
tp567
a(I171
I109
I186
I109
tp568
a(I186
I109
I204
I109
tp569
a(I204
I109
I221
I109
tp570
a(I221
I109
I239
I109
tp571
a(I239
I109
I255
I109
tp572
a(I255
I109
I273
I109
tp573
a(I273
I109
I290
I109
tp574
a(I290
I109
I308
I109
tp575
a(I308
I109
I323
I109
tp576
a(I323
I109
I338
I109
tp577
a(I338
I109
I352
I109
tp578
a(I352
I109
I366
I109
tp579
a(I366
I109
I379
I109
tp580
a(I379
I109
I392
I109
tp581
a(I392
I109
I405
I109
tp582
a(I405
I109
I418
I109
tp583
a(I418
I109
I435
I109
tp584
a(I435
I109
I447
I109
tp585
a(I447
I109
I461
I109
tp586
a(I461
I109
I473
I109
tp587
a(I473
I109
I484
I109
tp588
a(I484
I109
I495
I110
tp589
a(I495
I110
I505
I110
tp590
a(I505
I110
I514
I110
tp591
a(I514
I110
I522
I111
tp592
a(I522
I111
I529
I111
tp593
a(I529
I111
I535
I112
tp594
a(I535
I112
I540
I113
tp595
a(I540
I113
I545
I114
tp596
a(I545
I114
I551
I114
tp597
a(I551
I114
I556
I114
tp598
a(I556
I114
I561
I115
tp599
a(I561
I115
I566
I115
tp600
a(I566
I115
I573
I116
tp601
a(I573
I116
I579
I116
tp602
a(I579
I116
I585
I116
tp603
a(I585
I116
I591
I116
tp604
a(I591
I116
I594
I116
tp605
a(I594
I116
I597
I116
tp606
a(I597
I116
I598
I116
tp607
a(I598
I116
I599
I116
tp608
a(I599
I116
I600
I116
tp609
a(I600
I116
I602
I116
tp610
a(I602
I116
I603
I116
tp611
a(I603
I116
I605
I117
tp612
a(I605
I117
I606
I118
tp613
a(I606
I118
I607
I118
tp614
a(I607
I118
I609
I118
tp615
a(I609
I118
I610
I118
tp616
a(I610
I118
I613
I118
tp617
a(I613
I118
I614
I118
tp618
atp619
a(g561
I1
(lp620
(I137
I20
I141
I20
tp621
a(I141
I20
I142
I20
tp622
a(I142
I20
I144
I20
tp623
a(I144
I20
I146
I20
tp624
a(I146
I20
I147
I20
tp625
a(I147
I20
I151
I21
tp626
a(I151
I21
I152
I22
tp627
a(I152
I22
I153
I22
tp628
a(I153
I22
I156
I23
tp629
a(I156
I23
I158
I25
tp630
a(I158
I25
I159
I26
tp631
a(I159
I26
I160
I26
tp632
a(I160
I26
I162
I27
tp633
a(I162
I27
I163
I28
tp634
a(I163
I28
I166
I29
tp635
a(I166
I29
I167
I30
tp636
a(I167
I30
I168
I31
tp637
a(I168
I31
I169
I33
tp638
a(I169
I33
I169
I34
tp639
a(I169
I34
I169
I35
tp640
a(I169
I35
I171
I37
tp641
a(I171
I37
I172
I38
tp642
a(I172
I38
I172
I40
tp643
a(I172
I40
I173
I42
tp644
a(I173
I42
I173
I44
tp645
a(I173
I44
I173
I46
tp646
a(I173
I46
I173
I48
tp647
a(I173
I48
I173
I50
tp648
a(I173
I50
I173
I51
tp649
a(I173
I51
I173
I52
tp650
a(I173
I52
I173
I54
tp651
a(I173
I54
I173
I55
tp652
a(I173
I55
I173
I56
tp653
a(I173
I56
I173
I57
tp654
a(I173
I57
I173
I59
tp655
a(I173
I59
I172
I61
tp656
a(I172
I61
I171
I61
tp657
a(I171
I61
I170
I62
tp658
a(I170
I62
I168
I63
tp659
a(I168
I63
I167
I63
tp660
a(I167
I63
I165
I64
tp661
a(I165
I64
I164
I66
tp662
a(I164
I66
I163
I67
tp663
a(I163
I67
I161
I68
tp664
a(I161
I68
I158
I70
tp665
a(I158
I70
I156
I71
tp666
a(I156
I71
I154
I72
tp667
a(I154
I72
I152
I72
tp668
a(I152
I72
I151
I72
tp669
a(I151
I72
I150
I73
tp670
a(I150
I73
I149
I73
tp671
a(I149
I73
I146
I73
tp672
a(I146
I73
I145
I73
tp673
a(I145
I73
I142
I73
tp674
a(I142
I73
I141
I73
tp675
a(I141
I73
I140
I73
tp676
a(I140
I73
I139
I73
tp677
a(I139
I73
I137
I73
tp678
a(I137
I73
I136
I73
tp679
a(I136
I73
I135
I73
tp680
a(I135
I73
I134
I73
tp681
a(I134
I73
I132
I73
tp682
a(I132
I73
I131
I73
tp683
a(I131
I73
I130
I72
tp684
a(I130
I72
I129
I71
tp685
a(I129
I71
I128
I70
tp686
a(I128
I70
I127
I70
tp687
a(I127
I70
I126
I69
tp688
a(I126
I69
I125
I68
tp689
a(I125
I68
I124
I68
tp690
a(I124
I68
I121
I67
tp691
a(I121
I67
I120
I66
tp692
a(I120
I66
I119
I65
tp693
a(I119
I65
I118
I63
tp694
a(I118
I63
I118
I61
tp695
a(I118
I61
I116
I59
tp696
a(I116
I59
I116
I58
tp697
a(I116
I58
I115
I55
tp698
a(I115
I55
I115
I54
tp699
a(I115
I54
I115
I53
tp700
a(I115
I53
I115
I51
tp701
a(I115
I51
I115
I50
tp702
a(I115
I50
I115
I49
tp703
a(I115
I49
I115
I48
tp704
a(I115
I48
I115
I46
tp705
a(I115
I46
I115
I45
tp706
a(I115
I45
I115
I44
tp707
a(I115
I44
I115
I43
tp708
a(I115
I43
I115
I41
tp709
a(I115
I41
I116
I39
tp710
a(I116
I39
I117
I38
tp711
a(I117
I38
I118
I37
tp712
a(I118
I37
I118
I36
tp713
a(I118
I36
I119
I35
tp714
a(I119
I35
I120
I34
tp715
a(I120
I34
I121
I33
tp716
a(I121
I33
I122
I32
tp717
a(I122
I32
I122
I31
tp718
a(I122
I31
I123
I30
tp719
a(I123
I30
I124
I29
tp720
a(I124
I29
I125
I29
tp721
a(I125
I29
I127
I28
tp722
a(I127
I28
I128
I27
tp723
a(I128
I27
I129
I26
tp724
a(I129
I26
I131
I25
tp725
a(I131
I25
I132
I24
tp726
a(I132
I24
I133
I24
tp727
a(I133
I24
I134
I23
tp728
a(I134
I23
I135
I23
tp729
a(I135
I23
I136
I22
tp730
a(I136
I22
I137
I22
tp731
a(I137
I22
I138
I22
tp732
a(I138
I22
I140
I20
tp733
a(I140
I20
I141
I20
tp734
a(I141
I20
I143
I20
tp735
a(I143
I20
I144
I19
tp736
a(I144
I19
I145
I19
tp737
a(I145
I19
I146
I19
tp738
a(I146
I19
I147
I19
tp739
a(I147
I19
I148
I18
tp740
atp741
a(g561
I1
(lp742
(I45
I117
I48
I121
tp743
a(I48
I121
I55
I126
tp744
a(I55
I126
I61
I131
tp745
a(I61
I131
I68
I135
tp746
a(I68
I135
I74
I140
tp747
a(I74
I140
I80
I141
tp748
a(I80
I141
I89
I146
tp749
a(I89
I146
I97
I150
tp750
a(I97
I150
I102
I153
tp751
a(I102
I153
I106
I156
tp752
a(I106
I156
I111
I159
tp753
a(I111
I159
I115
I160
tp754
a(I115
I160
I122
I162
tp755
a(I122
I162
I126
I163
tp756
a(I126
I163
I131
I165
tp757
a(I131
I165
I135
I166
tp758
a(I135
I166
I142
I167
tp759
a(I142
I167
I148
I170
tp760
a(I148
I170
I159
I173
tp761
a(I159
I173
I167
I176
tp762
a(I167
I176
I180
I179
tp763
a(I180
I179
I190
I180
tp764
a(I190
I180
I204
I182
tp765
a(I204
I182
I216
I183
tp766
a(I216
I183
I228
I185
tp767
a(I228
I185
I240
I185
tp768
a(I240
I185
I253
I187
tp769
a(I253
I187
I270
I188
tp770
a(I270
I188
I290
I190
tp771
a(I290
I190
I310
I192
tp772
a(I310
I192
I328
I193
tp773
a(I328
I193
I348
I194
tp774
a(I348
I194
I368
I194
tp775
a(I368
I194
I387
I194
tp776
a(I387
I194
I405
I194
tp777
a(I405
I194
I422
I194
tp778
a(I422
I194
I439
I194
tp779
a(I439
I194
I456
I194
tp780
a(I456
I194
I472
I194
tp781
a(I472
I194
I487
I194
tp782
a(I487
I194
I500
I194
tp783
a(I500
I194
I506
I194
tp784
atp785
a(g561
I1
(lp786
(I63
I263
I64
I262
tp787
a(I64
I262
I70
I265
tp788
a(I70
I265
I77
I268
tp789
a(I77
I268
I88
I269
tp790
a(I88
I269
I102
I273
tp791
a(I102
I273
I114
I274
tp792
a(I114
I274
I128
I276
tp793
a(I128
I276
I142
I282
tp794
a(I142
I282
I155
I287
tp795
a(I155
I287
I165
I288
tp796
a(I165
I288
I177
I290
tp797
a(I177
I290
I183
I290
tp798
a(I183
I290
I186
I290
tp799
a(I186
I290
I189
I290
tp800
a(I189
I290
I191
I292
tp801
a(I191
I292
I193
I292
tp802
a(I193
I292
I194
I292
tp803
a(I194
I292
I196
I292
tp804
a(I196
I292
I200
I292
tp805
a(I200
I292
I204
I293
tp806
a(I204
I293
I206
I293
tp807
a(I206
I293
I210
I294
tp808
a(I210
I294
I214
I294
tp809
a(I214
I294
I218
I295
tp810
a(I218
I295
I221
I295
tp811
a(I221
I295
I226
I297
tp812
a(I226
I297
I230
I297
tp813
a(I230
I297
I234
I298
tp814
a(I234
I298
I238
I298
tp815
a(I238
I298
I241
I298
tp816
a(I241
I298
I246
I299
tp817
a(I246
I299
I254
I299
tp818
atp819
a(g561
I1
(lp820
(I664
I223
I665
I222
tp821
a(I665
I222
I666
I221
tp822
a(I666
I221
I666
I220
tp823
a(I666
I220
I667
I219
tp824
a(I667
I219
I667
I218
tp825
a(I667
I218
I668
I217
tp826
a(I668
I217
I669
I216
tp827
a(I669
I216
I670
I216
tp828
a(I670
I216
I671
I216
tp829
a(I671
I216
I673
I216
tp830
a(I673
I216
I674
I216
tp831
a(I674
I216
I675
I216
tp832
a(I675
I216
I676
I216
tp833
a(I676
I216
I678
I216
tp834
a(I678
I216
I679
I216
tp835
a(I679
I216
I680
I216
tp836
a(I680
I216
I681
I216
tp837
a(I681
I216
I683
I216
tp838
a(I683
I216
I684
I217
tp839
a(I684
I217
I685
I217
tp840
a(I685
I217
I686
I217
tp841
a(I686
I217
I688
I217
tp842
a(I688
I217
I689
I217
tp843
a(I689
I217
I690
I217
tp844
a(I690
I217
I691
I217
tp845
a(I691
I217
I693
I217
tp846
a(I693
I217
I694
I217
tp847
a(I694
I217
I695
I217
tp848
a(I695
I217
I696
I217
tp849
a(I696
I217
I698
I217
tp850
a(I698
I217
I699
I217
tp851
a(I699
I217
I700
I217
tp852
a(I700
I217
I701
I217
tp853
a(I701
I217
I703
I217
tp854
a(I703
I217
I704
I218
tp855
a(I704
I218
I704
I220
tp856
a(I704
I220
I703
I221
tp857
a(I703
I221
I702
I222
tp858
a(I702
I222
I702
I223
tp859
a(I702
I223
I701
I224
tp860
a(I701
I224
I700
I225
tp861
a(I700
I225
I699
I226
tp862
a(I699
I226
I698
I226
tp863
a(I698
I226
I695
I226
tp864
a(I695
I226
I693
I227
tp865
a(I693
I227
I690
I229
tp866
a(I690
I229
I689
I229
tp867
a(I689
I229
I688
I230
tp868
a(I688
I230
I687
I231
tp869
a(I687
I231
I686
I232
tp870
a(I686
I232
I686
I233
tp871
a(I686
I233
I686
I234
tp872
a(I686
I234
I686
I235
tp873
a(I686
I235
I686
I236
tp874
a(I686
I236
I686
I238
tp875
a(I686
I238
I686
I239
tp876
a(I686
I239
I686
I240
tp877
a(I686
I240
I686
I241
tp878
a(I686
I241
I686
I243
tp879
a(I686
I243
I686
I244
tp880
a(I686
I244
I685
I246
tp881
a(I685
I246
I684
I247
tp882
a(I684
I247
I684
I248
tp883
a(I684
I248
I683
I249
tp884
a(I683
I249
I683
I250
tp885
a(I683
I250
I682
I251
tp886
a(I682
I251
I681
I253
tp887
a(I681
I253
I681
I254
tp888
a(I681
I254
I680
I255
tp889
a(I680
I255
I679
I256
tp890
a(I679
I256
I678
I257
tp891
a(I678
I257
I676
I259
tp892
a(I676
I259
I674
I261
tp893
a(I674
I261
I673
I262
tp894
a(I673
I262
I672
I263
tp895
a(I672
I263
I671
I264
tp896
a(I671
I264
I670
I265
tp897
a(I670
I265
I669
I266
tp898
a(I669
I266
I668
I267
tp899
a(I668
I267
I666
I268
tp900
a(I666
I268
I665
I269
tp901
a(I665
I269
I664
I269
tp902
a(I664
I269
I663
I270
tp903
a(I663
I270
I662
I270
tp904
a(I662
I270
I660
I270
tp905
a(I660
I270
I659
I270
tp906
a(I659
I270
I658
I270
tp907
a(I658
I270
I657
I270
tp908
a(I657
I270
I655
I270
tp909
a(I655
I270
I654
I270
tp910
a(I654
I270
I653
I270
tp911
a(I653
I270
I652
I270
tp912
a(I652
I270
I650
I270
tp913
a(I650
I270
I649
I270
tp914
a(I649
I270
I648
I271
tp915
a(I648
I271
I647
I271
tp916
a(I647
I271
I645
I271
tp917
a(I645
I271
I644
I271
tp918
a(I644
I271
I643
I271
tp919
a(I643
I271
I642
I271
tp920
a(I642
I271
I640
I271
tp921
a(I640
I271
I639
I271
tp922
a(I639
I271
I638
I271
tp923
a(I638
I271
I637
I271
tp924
a(I637
I271
I635
I271
tp925
a(I635
I271
I634
I271
tp926
a(I634
I271
I633
I271
tp927
a(I633
I271
I632
I272
tp928
a(I632
I272
I630
I272
tp929
a(I630
I272
I629
I272
tp930
a(I629
I272
I628
I272
tp931
a(I628
I272
I627
I272
tp932
a(I627
I272
I625
I272
tp933
a(I625
I272
I623
I272
tp934
a(I623
I272
I622
I272
tp935
a(I622
I272
I620
I272
tp936
a(I620
I272
I619
I272
tp937
a(I619
I272
I618
I272
tp938
a(I618
I272
I617
I272
tp939
a(I617
I272
I615
I272
tp940
a(I615
I272
I616
I272
tp941
a(I616
I272
I619
I272
tp942
a(I619
I272
I620
I271
tp943
a(I620
I271
I622
I269
tp944
a(I622
I269
I624
I268
tp945
a(I624
I268
I625
I267
tp946
a(I625
I267
I626
I266
tp947
a(I626
I266
I627
I265
tp948
a(I627
I265
I628
I264
tp949
a(I628
I264
I629
I263
tp950
a(I629
I263
I630
I262
tp951
a(I630
I262
I630
I260
tp952
a(I630
I260
I630
I259
tp953
a(I630
I259
I631
I258
tp954
a(I631
I258
I631
I257
tp955
a(I631
I257
I631
I255
tp956
a(I631
I255
I631
I254
tp957
a(I631
I254
I629
I253
tp958
a(I629
I253
I627
I253
tp959
a(I627
I253
I624
I253
tp960
a(I624
I253
I623
I253
tp961
a(I623
I253
I622
I253
tp962
a(I622
I253
I620
I253
tp963
a(I620
I253
I619
I252
tp964
a(I619
I252
I618
I252
tp965
a(I618
I252
I617
I252
tp966
a(I617
I252
I616
I251
tp967
a(I616
I251
I615
I251
tp968
a(I615
I251
I614
I251
tp969
a(I614
I251
I613
I250
tp970
a(I613
I250
I612
I249
tp971
a(I612
I249
I611
I248
tp972
a(I611
I248
I610
I247
tp973
a(I610
I247
I609
I246
tp974
a(I609
I246
I609
I245
tp975
a(I609
I245
I608
I244
tp976
a(I608
I244
I607
I243
tp977
a(I607
I243
I607
I242
tp978
a(I607
I242
I606
I240
tp979
a(I606
I240
I606
I239
tp980
a(I606
I239
I605
I237
tp981
a(I605
I237
I604
I236
tp982
a(I604
I236
I604
I235
tp983
a(I604
I235
I604
I234
tp984
a(I604
I234
I603
I232
tp985
a(I603
I232
I603
I230
tp986
a(I603
I230
I603
I229
tp987
a(I603
I229
I603
I228
tp988
a(I603
I228
I603
I227
tp989
a(I603
I227
I603
I225
tp990
a(I603
I225
I603
I224
tp991
a(I603
I224
I602
I222
tp992
a(I602
I222
I602
I220
tp993
a(I602
I220
I602
I219
tp994
a(I602
I219
I602
I218
tp995
a(I602
I218
I602
I217
tp996
a(I602
I217
I603
I216
tp997
a(I603
I216
I604
I216
tp998
a(I604
I216
I607
I219
tp999
a(I607
I219
I608
I219
tp1000
a(I608
I219
I609
I220
tp1001
a(I609
I220
I612
I221
tp1002
a(I612
I221
I613
I221
tp1003
a(I613
I221
I615
I222
tp1004
a(I615
I222
I618
I224
tp1005
a(I618
I224
I619
I225
tp1006
a(I619
I225
I620
I225
tp1007
a(I620
I225
I621
I226
tp1008
a(I621
I226
I624
I227
tp1009
a(I624
I227
I625
I227
tp1010
a(I625
I227
I627
I228
tp1011
a(I627
I228
I628
I229
tp1012
a(I628
I229
I629
I229
tp1013
a(I629
I229
I631
I230
tp1014
a(I631
I230
I633
I230
tp1015
a(I633
I230
I634
I230
tp1016
a(I634
I230
I635
I230
tp1017
a(I635
I230
I636
I230
tp1018
a(I636
I230
I638
I230
tp1019
a(I638
I230
I639
I231
tp1020
a(I639
I231
I640
I231
tp1021
a(I640
I231
I641
I231
tp1022
a(I641
I231
I643
I231
tp1023
a(I643
I231
I644
I231
tp1024
a(I644
I231
I645
I231
tp1025
a(I645
I231
I646
I231
tp1026
a(I646
I231
I649
I232
tp1027
a(I649
I232
I650
I232
tp1028
a(I650
I232
I651
I232
tp1029
a(I651
I232
I653
I232
tp1030
a(I653
I232
I654
I232
tp1031
a(I654
I232
I655
I232
tp1032
a(I655
I232
I656
I232
tp1033
a(I656
I232
I658
I232
tp1034
a(I658
I232
I659
I232
tp1035
a(I659
I232
I660
I232
tp1036
a(I660
I232
I661
I231
tp1037
a(I661
I231
I662
I229
tp1038
a(I662
I229
I663
I227
tp1039
a(I663
I227
I664
I226
tp1040
a(I664
I226
I665
I224
tp1041
a(I665
I224
I666
I223
tp1042
atp1043
a.